
/lib/modules/2.6.32.8/kernel/drivers/md/dm-mod.ko:     file format elf32-i386


Disassembly of section .text:

00000000 <dm_uevent_exit>:
       0:	a1 00 00 00 00       	mov    0x0,%eax
			1: R_386_32	.bss
       5:	e9 fc ff ff ff       	jmp    6 <dm_uevent_exit+0x6>
			6: R_386_PC32	kmem_cache_destroy

0000000a <dm_uevent_init>:
       a:	6a 00                	push   $0x0
       c:	b9 04 00 00 00       	mov    $0x4,%ecx
      11:	ba 9c 09 00 00       	mov    $0x99c,%edx
      16:	b8 00 00 00 00       	mov    $0x0,%eax
			17: R_386_32	.rodata.str1.1
      1b:	6a 00                	push   $0x0
      1d:	e8 fc ff ff ff       	call   1e <dm_uevent_init+0x14>
			1e: R_386_PC32	kmem_cache_create
      22:	59                   	pop    %ecx
      23:	89 c2                	mov    %eax,%edx
      25:	85 d2                	test   %edx,%edx
      27:	a3 00 00 00 00       	mov    %eax,0x0
			28: R_386_32	.bss
      2c:	58                   	pop    %eax
      2d:	b8 f4 ff ff ff       	mov    $0xfffffff4,%eax
      32:	74 0d                	je     41 <dm_uevent_init+0x37>
      34:	68 0a 00 00 00       	push   $0xa
			35: R_386_32	.rodata.str1.1
      39:	e8 fc ff ff ff       	call   3a <dm_uevent_init+0x30>
			3a: R_386_PC32	printk
      3e:	31 c0                	xor    %eax,%eax
      40:	5a                   	pop    %edx
      41:	c3                   	ret    

00000042 <dm_path_uevent>:
      42:	55                   	push   %ebp
      43:	57                   	push   %edi
      44:	56                   	push   %esi
      45:	89 d6                	mov    %edx,%esi
      47:	53                   	push   %ebx
      48:	89 c3                	mov    %eax,%ebx
      4a:	83 ec 10             	sub    $0x10,%esp
      4d:	8b 44 24 24          	mov    0x24(%esp),%eax
      51:	89 4c 24 08          	mov    %ecx,0x8(%esp)
      55:	89 44 24 0c          	mov    %eax,0xc(%esp)
      59:	8b 02                	mov    (%edx),%eax
      5b:	e8 fc ff ff ff       	call   5c <dm_path_uevent+0x1a>
			5c: R_386_PC32	dm_table_get_md
      60:	83 fb 01             	cmp    $0x1,%ebx
      63:	89 c7                	mov    %eax,%edi
      65:	76 18                	jbe    7f <dm_path_uevent+0x3d>
      67:	53                   	push   %ebx
      68:	68 18 00 00 00       	push   $0x18
			69: R_386_32	.rodata
      6d:	68 33 00 00 00       	push   $0x33
			6e: R_386_32	.rodata.str1.1
      72:	e8 fc ff ff ff       	call   73 <dm_path_uevent+0x31>
			73: R_386_PC32	printk
      77:	83 c4 0c             	add    $0xc,%esp
      7a:	e9 36 01 00 00       	jmp    1b5 <dm_path_uevent+0x173>
      7f:	6b db 0c             	imul   $0xc,%ebx,%ebx
      82:	ba 20 80 00 00       	mov    $0x8020,%edx
      87:	8b 83 08 00 00 00    	mov    0x8(%ebx),%eax
			89: R_386_32	.rodata
      8d:	8b 9b 04 00 00 00    	mov    0x4(%ebx),%ebx
			8f: R_386_32	.rodata
      93:	89 44 24 04          	mov    %eax,0x4(%esp)
      97:	a1 00 00 00 00       	mov    0x0,%eax
			98: R_386_32	.bss
      9c:	e8 fc ff ff ff       	call   9d <dm_path_uevent+0x5b>
			9d: R_386_PC32	kmem_cache_alloc
      a1:	85 c0                	test   %eax,%eax
      a3:	89 c5                	mov    %eax,%ebp
      a5:	74 38                	je     df <dm_path_uevent+0x9d>
      a7:	8d 80 90 08 00 00    	lea    0x890(%eax),%eax
      ad:	89 04 24             	mov    %eax,(%esp)
      b0:	89 5d 04             	mov    %ebx,0x4(%ebp)
      b3:	8d 5d 08             	lea    0x8(%ebp),%ebx
      b6:	89 85 90 08 00 00    	mov    %eax,0x890(%ebp)
      bc:	89 85 94 08 00 00    	mov    %eax,0x894(%ebp)
      c2:	89 7d 00             	mov    %edi,0x0(%ebp)
      c5:	8b 46 04             	mov    0x4(%esi),%eax
      c8:	ff 70 08             	pushl  0x8(%eax)
      cb:	68 68 00 00 00       	push   $0x68
			cc: R_386_32	.rodata.str1.1
      d0:	53                   	push   %ebx
      d1:	e8 fc ff ff ff       	call   d2 <dm_path_uevent+0x90>
			d2: R_386_PC32	add_uevent_var
      d6:	83 c4 0c             	add    $0xc,%esp
      d9:	85 c0                	test   %eax,%eax
      db:	74 27                	je     104 <dm_path_uevent+0xc2>
      dd:	eb 16                	jmp    f5 <dm_path_uevent+0xb3>
      df:	68 28 00 00 00       	push   $0x28
			e0: R_386_32	.rodata
      e4:	68 75 00 00 00       	push   $0x75
			e5: R_386_32	.rodata.str1.1
      e9:	e8 fc ff ff ff       	call   ea <dm_path_uevent+0xa8>
			ea: R_386_PC32	printk
      ee:	5b                   	pop    %ebx
      ef:	5e                   	pop    %esi
      f0:	e9 c0 00 00 00       	jmp    1b5 <dm_path_uevent+0x173>
      f5:	68 28 00 00 00       	push   $0x28
			f6: R_386_32	.rodata
      fa:	68 ad 00 00 00       	push   $0xad
			fb: R_386_32	.rodata.str1.1
      ff:	e9 8a 00 00 00       	jmp    18e <dm_path_uevent+0x14c>
     104:	ff 74 24 04          	pushl  0x4(%esp)
     108:	68 f2 00 00 00       	push   $0xf2
			109: R_386_32	.rodata.str1.1
     10d:	53                   	push   %ebx
     10e:	e8 fc ff ff ff       	call   10f <dm_path_uevent+0xcd>
			10f: R_386_PC32	add_uevent_var
     113:	83 c4 0c             	add    $0xc,%esp
     116:	85 c0                	test   %eax,%eax
     118:	74 0c                	je     126 <dm_path_uevent+0xe4>
     11a:	68 28 00 00 00       	push   $0x28
			11b: R_386_32	.rodata
     11f:	68 ff 00 00 00       	push   $0xff
			120: R_386_32	.rodata.str1.1
     124:	eb 68                	jmp    18e <dm_path_uevent+0x14c>
     126:	89 f8                	mov    %edi,%eax
     128:	e8 fc ff ff ff       	call   129 <dm_path_uevent+0xe7>
			129: R_386_PC32	dm_next_uevent_seq
     12d:	50                   	push   %eax
     12e:	68 44 01 00 00       	push   $0x144
			12f: R_386_32	.rodata.str1.1
     133:	53                   	push   %ebx
     134:	e8 fc ff ff ff       	call   135 <dm_path_uevent+0xf3>
			135: R_386_PC32	add_uevent_var
     139:	83 c4 0c             	add    $0xc,%esp
     13c:	85 c0                	test   %eax,%eax
     13e:	74 0c                	je     14c <dm_path_uevent+0x10a>
     140:	68 28 00 00 00       	push   $0x28
			141: R_386_32	.rodata
     145:	68 51 01 00 00       	push   $0x151
			146: R_386_32	.rodata.str1.1
     14a:	eb 42                	jmp    18e <dm_path_uevent+0x14c>
     14c:	ff 74 24 08          	pushl  0x8(%esp)
     150:	68 96 01 00 00       	push   $0x196
			151: R_386_32	.rodata.str1.1
     155:	53                   	push   %ebx
     156:	e8 fc ff ff ff       	call   157 <dm_path_uevent+0x115>
			157: R_386_PC32	add_uevent_var
     15b:	83 c4 0c             	add    $0xc,%esp
     15e:	85 c0                	test   %eax,%eax
     160:	74 0c                	je     16e <dm_path_uevent+0x12c>
     162:	68 28 00 00 00       	push   $0x28
			163: R_386_32	.rodata
     167:	68 a1 01 00 00       	push   $0x1a1
			168: R_386_32	.rodata.str1.1
     16c:	eb 20                	jmp    18e <dm_path_uevent+0x14c>
     16e:	ff 74 24 0c          	pushl  0xc(%esp)
     172:	68 e4 01 00 00       	push   $0x1e4
			173: R_386_32	.rodata.str1.1
     177:	53                   	push   %ebx
     178:	e8 fc ff ff ff       	call   179 <dm_path_uevent+0x137>
			179: R_386_PC32	add_uevent_var
     17d:	83 c4 0c             	add    $0xc,%esp
     180:	85 c0                	test   %eax,%eax
     182:	74 1f                	je     1a3 <dm_path_uevent+0x161>
     184:	68 28 00 00 00       	push   $0x28
			185: R_386_32	.rodata
     189:	68 f9 01 00 00       	push   $0x1f9
			18a: R_386_32	.rodata.str1.1
     18e:	e8 fc ff ff ff       	call   18f <dm_path_uevent+0x14d>
			18f: R_386_PC32	printk
     193:	a1 00 00 00 00       	mov    0x0,%eax
			194: R_386_32	.bss
     198:	5a                   	pop    %edx
     199:	89 ea                	mov    %ebp,%edx
     19b:	59                   	pop    %ecx
     19c:	e8 fc ff ff ff       	call   19d <dm_path_uevent+0x15b>
			19d: R_386_PC32	kmem_cache_free
     1a1:	eb 12                	jmp    1b5 <dm_path_uevent+0x173>
     1a3:	81 fd 00 f0 ff ff    	cmp    $0xfffff000,%ebp
     1a9:	77 0a                	ja     1b5 <dm_path_uevent+0x173>
     1ab:	8b 14 24             	mov    (%esp),%edx
     1ae:	89 f8                	mov    %edi,%eax
     1b0:	e8 fc ff ff ff       	call   1b1 <dm_path_uevent+0x16f>
			1b1: R_386_PC32	dm_uevent_add
     1b5:	83 c4 10             	add    $0x10,%esp
     1b8:	89 f8                	mov    %edi,%eax
     1ba:	5b                   	pop    %ebx
     1bb:	5e                   	pop    %esi
     1bc:	5f                   	pop    %edi
     1bd:	5d                   	pop    %ebp
     1be:	e9 fc ff ff ff       	jmp    1bf <dm_path_uevent+0x17d>
			1bf: R_386_PC32	dm_put

000001c3 <dm_send_uevents>:
     1c3:	55                   	push   %ebp
     1c4:	57                   	push   %edi
     1c5:	56                   	push   %esi
     1c6:	89 c6                	mov    %eax,%esi
     1c8:	53                   	push   %ebx
     1c9:	83 ec 0c             	sub    $0xc,%esp
     1cc:	89 54 24 08          	mov    %edx,0x8(%esp)
     1d0:	8b 18                	mov    (%eax),%ebx
     1d2:	81 eb 90 08 00 00    	sub    $0x890,%ebx
     1d8:	8b bb 90 08 00 00    	mov    0x890(%ebx),%edi
     1de:	81 ef 90 08 00 00    	sub    $0x890,%edi
     1e4:	e9 d5 00 00 00       	jmp    2be <dm_send_uevents+0xfb>
     1e9:	8b 8b 90 08 00 00    	mov    0x890(%ebx),%ecx
     1ef:	8d ab 98 08 00 00    	lea    0x898(%ebx),%ebp
     1f5:	8b 93 94 08 00 00    	mov    0x894(%ebx),%edx
     1fb:	89 51 04             	mov    %edx,0x4(%ecx)
     1fe:	89 0a                	mov    %ecx,(%edx)
     200:	89 ea                	mov    %ebp,%edx
     202:	89 83 90 08 00 00    	mov    %eax,0x890(%ebx)
     208:	89 83 94 08 00 00    	mov    %eax,0x894(%ebx)
     20e:	8d 83 18 09 00 00    	lea    0x918(%ebx),%eax
     214:	89 44 24 04          	mov    %eax,0x4(%esp)
     218:	89 c1                	mov    %eax,%ecx
     21a:	8b 03                	mov    (%ebx),%eax
     21c:	e8 fc ff ff ff       	call   21d <dm_send_uevents+0x5a>
			21d: R_386_PC32	dm_copy_name_and_uuid
     221:	85 c0                	test   %eax,%eax
     223:	74 0c                	je     231 <dm_send_uevents+0x6e>
     225:	68 40 00 00 00       	push   $0x40
			226: R_386_32	.rodata
     22a:	68 46 02 00 00       	push   $0x246
			22b: R_386_32	.rodata.str1.1
     22f:	eb 6c                	jmp    29d <dm_send_uevents+0xda>
     231:	55                   	push   %ebp
     232:	8d 4b 08             	lea    0x8(%ebx),%ecx
     235:	68 8d 02 00 00       	push   $0x28d
			236: R_386_32	.rodata.str1.1
     23a:	51                   	push   %ecx
     23b:	89 4c 24 0c          	mov    %ecx,0xc(%esp)
     23f:	e8 fc ff ff ff       	call   240 <dm_send_uevents+0x7d>
			240: R_386_PC32	add_uevent_var
     244:	83 c4 0c             	add    $0xc,%esp
     247:	85 c0                	test   %eax,%eax
     249:	8b 0c 24             	mov    (%esp),%ecx
     24c:	74 0c                	je     25a <dm_send_uevents+0x97>
     24e:	68 40 00 00 00       	push   $0x40
			24f: R_386_32	.rodata
     253:	68 98 02 00 00       	push   $0x298
			254: R_386_32	.rodata.str1.1
     258:	eb 43                	jmp    29d <dm_send_uevents+0xda>
     25a:	ff 74 24 04          	pushl  0x4(%esp)
     25e:	68 db 02 00 00       	push   $0x2db
			25f: R_386_32	.rodata.str1.1
     263:	51                   	push   %ecx
     264:	89 4c 24 0c          	mov    %ecx,0xc(%esp)
     268:	e8 fc ff ff ff       	call   269 <dm_send_uevents+0xa6>
			269: R_386_PC32	add_uevent_var
     26d:	83 c4 0c             	add    $0xc,%esp
     270:	85 c0                	test   %eax,%eax
     272:	8b 0c 24             	mov    (%esp),%ecx
     275:	74 0c                	je     283 <dm_send_uevents+0xc0>
     277:	68 40 00 00 00       	push   $0x40
			278: R_386_32	.rodata
     27c:	68 e6 02 00 00       	push   $0x2e6
			27d: R_386_32	.rodata.str1.1
     281:	eb 1a                	jmp    29d <dm_send_uevents+0xda>
     283:	8b 53 04             	mov    0x4(%ebx),%edx
     286:	8b 44 24 08          	mov    0x8(%esp),%eax
     28a:	e8 fc ff ff ff       	call   28b <dm_send_uevents+0xc8>
			28b: R_386_PC32	kobject_uevent_env
     28f:	85 c0                	test   %eax,%eax
     291:	74 11                	je     2a4 <dm_send_uevents+0xe1>
     293:	68 40 00 00 00       	push   $0x40
			294: R_386_32	.rodata
     298:	68 29 03 00 00       	push   $0x329
			299: R_386_32	.rodata.str1.1
     29d:	e8 fc ff ff ff       	call   29e <dm_send_uevents+0xdb>
			29e: R_386_PC32	printk
     2a2:	5d                   	pop    %ebp
     2a3:	58                   	pop    %eax
     2a4:	a1 00 00 00 00       	mov    0x0,%eax
			2a5: R_386_32	.bss
     2a9:	89 da                	mov    %ebx,%edx
     2ab:	89 fb                	mov    %edi,%ebx
     2ad:	e8 fc ff ff ff       	call   2ae <dm_send_uevents+0xeb>
			2ae: R_386_PC32	kmem_cache_free
     2b2:	8b 87 90 08 00 00    	mov    0x890(%edi),%eax
     2b8:	8d b8 70 f7 ff ff    	lea    -0x890(%eax),%edi
     2be:	8d 83 90 08 00 00    	lea    0x890(%ebx),%eax
     2c4:	39 f0                	cmp    %esi,%eax
     2c6:	0f 85 1d ff ff ff    	jne    1e9 <dm_send_uevents+0x26>
     2cc:	83 c4 0c             	add    $0xc,%esp
     2cf:	5b                   	pop    %ebx
     2d0:	5e                   	pop    %esi
     2d1:	5f                   	pop    %edi
     2d2:	5d                   	pop    %ebp
     2d3:	c3                   	ret    

000002d4 <dm_get_mapinfo>:
     2d4:	85 c0                	test   %eax,%eax
     2d6:	74 0b                	je     2e3 <dm_get_mapinfo+0xf>
     2d8:	8b 40 40             	mov    0x40(%eax),%eax
     2db:	85 c0                	test   %eax,%eax
     2dd:	74 04                	je     2e3 <dm_get_mapinfo+0xf>
     2df:	83 c0 08             	add    $0x8,%eax
     2e2:	c3                   	ret    
     2e3:	31 c0                	xor    %eax,%eax
     2e5:	c3                   	ret    

000002e6 <dm_get_rq_mapinfo>:
     2e6:	85 c0                	test   %eax,%eax
     2e8:	74 10                	je     2fa <dm_get_rq_mapinfo+0x14>
     2ea:	8b 80 c0 00 00 00    	mov    0xc0(%eax),%eax
     2f0:	85 c0                	test   %eax,%eax
     2f2:	74 06                	je     2fa <dm_get_rq_mapinfo+0x14>
     2f4:	05 d8 00 00 00       	add    $0xd8,%eax
     2f9:	c3                   	ret    
     2fa:	31 c0                	xor    %eax,%eax
     2fc:	c3                   	ret    

000002fd <dm_open_count>:
     2fd:	8b 40 2c             	mov    0x2c(%eax),%eax
     300:	c3                   	ret    

00000301 <dm_blk_getgeo>:
     301:	53                   	push   %ebx
     302:	8b 40 50             	mov    0x50(%eax),%eax
     305:	8b 80 98 01 00 00    	mov    0x198(%eax),%eax
     30b:	8b 98 c4 00 00 00    	mov    0xc4(%eax),%ebx
     311:	8b 88 c0 00 00 00    	mov    0xc0(%eax),%ecx
     317:	31 c0                	xor    %eax,%eax
     319:	89 5a 04             	mov    %ebx,0x4(%edx)
     31c:	89 0a                	mov    %ecx,(%edx)
     31e:	5b                   	pop    %ebx
     31f:	c3                   	ret    

00000320 <dm_get_geometry>:
     320:	53                   	push   %ebx
     321:	8b 98 c4 00 00 00    	mov    0xc4(%eax),%ebx
     327:	8b 88 c0 00 00 00    	mov    0xc0(%eax),%ecx
     32d:	31 c0                	xor    %eax,%eax
     32f:	89 5a 04             	mov    %ebx,0x4(%edx)
     332:	89 0a                	mov    %ecx,(%edx)
     334:	5b                   	pop    %ebx
     335:	c3                   	ret    

00000336 <dm_get_mdptr>:
     336:	8b 40 4c             	mov    0x4c(%eax),%eax
     339:	c3                   	ret    

0000033a <dm_set_mdptr>:
     33a:	89 50 4c             	mov    %edx,0x4c(%eax)
     33d:	c3                   	ret    

0000033e <dm_get>:
     33e:	f0 ff 40 28          	lock incl 0x28(%eax)
     342:	c3                   	ret    

00000343 <dm_device_name>:
     343:	83 c0 3c             	add    $0x3c,%eax
     346:	c3                   	ret    

00000347 <dm_next_uevent_seq>:
     347:	ba 01 00 00 00       	mov    $0x1,%edx
     34c:	f0 0f c1 90 a8 00 00 	lock xadd %edx,0xa8(%eax)
     353:	00 
     354:	8d 42 01             	lea    0x1(%edx),%eax
     357:	c3                   	ret    

00000358 <dm_get_event_nr>:
     358:	8b 80 98 00 00 00    	mov    0x98(%eax),%eax
     35e:	c3                   	ret    

0000035f <dm_disk>:
     35f:	8b 40 38             	mov    0x38(%eax),%eax
     362:	c3                   	ret    

00000363 <dm_kobject>:
     363:	05 94 01 00 00       	add    $0x194,%eax
     368:	c3                   	ret    

00000369 <dm_get_from_kobject>:
     369:	89 c2                	mov    %eax,%edx
     36b:	8d 80 6c fe ff ff    	lea    -0x194(%eax),%eax
     371:	53                   	push   %ebx
     372:	8b 58 30             	mov    0x30(%eax),%ebx
     375:	89 d9                	mov    %ebx,%ecx
     377:	c1 e9 04             	shr    $0x4,%ecx
     37a:	c1 eb 03             	shr    $0x3,%ebx
     37d:	09 d9                	or     %ebx,%ecx
     37f:	80 e1 01             	and    $0x1,%cl
     382:	75 09                	jne    38d <dm_get_from_kobject+0x24>
     384:	f0 ff 82 94 fe ff ff 	lock incl -0x16c(%edx)
     38b:	eb 02                	jmp    38f <dm_get_from_kobject+0x26>
     38d:	31 c0                	xor    %eax,%eax
     38f:	5b                   	pop    %ebx
     390:	c3                   	ret    

00000391 <dm_suspended>:
     391:	8b 40 30             	mov    0x30(%eax),%eax
     394:	d1 e8                	shr    %eax
     396:	83 e0 01             	and    $0x1,%eax
     399:	c3                   	ret    

0000039a <local_exit>:
     39a:	a1 30 00 00 00       	mov    0x30,%eax
			39b: R_386_32	.bss
     39f:	e8 fc ff ff ff       	call   3a0 <local_exit+0x6>
			3a0: R_386_PC32	kmem_cache_destroy
     3a4:	a1 2c 00 00 00       	mov    0x2c,%eax
			3a5: R_386_32	.bss
     3a9:	e8 fc ff ff ff       	call   3aa <local_exit+0x10>
			3aa: R_386_PC32	kmem_cache_destroy
     3ae:	a1 28 00 00 00       	mov    0x28,%eax
			3af: R_386_32	.bss
     3b3:	e8 fc ff ff ff       	call   3b4 <local_exit+0x1a>
			3b4: R_386_PC32	kmem_cache_destroy
     3b8:	a1 24 00 00 00       	mov    0x24,%eax
			3b9: R_386_32	.bss
     3bd:	e8 fc ff ff ff       	call   3be <local_exit+0x24>
			3be: R_386_PC32	kmem_cache_destroy
     3c2:	8b 15 68 00 00 00    	mov    0x68,%edx
			3c4: R_386_32	.rodata
     3c8:	a1 08 00 00 00       	mov    0x8,%eax
			3c9: R_386_32	.bss
     3cd:	e8 fc ff ff ff       	call   3ce <local_exit+0x34>
			3ce: R_386_PC32	unregister_blkdev
     3d2:	e8 fc ff ff ff       	call   3d3 <local_exit+0x39>
			3d3: R_386_PC32	dm_uevent_exit
     3d7:	c7 05 08 00 00 00 00 	movl   $0x0,0x8
     3de:	00 00 00 
			3d9: R_386_32	.bss
     3e1:	68 7e 03 00 00       	push   $0x37e
			3e2: R_386_32	.rodata.str1.1
     3e6:	e8 fc ff ff ff       	call   3e7 <local_exit+0x4d>
			3e7: R_386_PC32	printk
     3eb:	59                   	pop    %ecx
     3ec:	c3                   	ret    

000003ed <dm_set_geometry>:
     3ed:	55                   	push   %ebp
     3ee:	89 d5                	mov    %edx,%ebp
     3f0:	57                   	push   %edi
     3f1:	56                   	push   %esi
     3f2:	53                   	push   %ebx
     3f3:	31 db                	xor    %ebx,%ebx
     3f5:	83 ec 0c             	sub    $0xc,%esp
     3f8:	89 04 24             	mov    %eax,(%esp)
     3fb:	0f b6 3a             	movzbl (%edx),%edi
     3fe:	0f b7 72 02          	movzwl 0x2(%edx),%esi
     402:	8b 4a 04             	mov    0x4(%edx),%ecx
     405:	89 f8                	mov    %edi,%eax
     407:	f7 e6                	mul    %esi
     409:	89 54 24 08          	mov    %edx,0x8(%esp)
     40d:	8b 7c 24 08          	mov    0x8(%esp),%edi
     411:	89 44 24 04          	mov    %eax,0x4(%esp)
     415:	0f b6 75 01          	movzbl 0x1(%ebp),%esi
     419:	f7 e6                	mul    %esi
     41b:	0f af fe             	imul   %esi,%edi
     41e:	89 44 24 04          	mov    %eax,0x4(%esp)
     422:	01 fa                	add    %edi,%edx
     424:	39 d3                	cmp    %edx,%ebx
     426:	89 54 24 08          	mov    %edx,0x8(%esp)
     42a:	72 1a                	jb     446 <dm_set_geometry+0x59>
     42c:	77 06                	ja     434 <dm_set_geometry+0x47>
     42e:	3b 4c 24 04          	cmp    0x4(%esp),%ecx
     432:	76 12                	jbe    446 <dm_set_geometry+0x59>
     434:	68 a2 03 00 00       	push   $0x3a2
			435: R_386_32	.rodata.str1.1
     439:	e8 fc ff ff ff       	call   43a <dm_set_geometry+0x4d>
			43a: R_386_PC32	printk
     43e:	b8 ea ff ff ff       	mov    $0xffffffea,%eax
     443:	5b                   	pop    %ebx
     444:	eb 17                	jmp    45d <dm_set_geometry+0x70>
     446:	8b 04 24             	mov    (%esp),%eax
     449:	8b 55 00             	mov    0x0(%ebp),%edx
     44c:	8b 4d 04             	mov    0x4(%ebp),%ecx
     44f:	89 90 c0 00 00 00    	mov    %edx,0xc0(%eax)
     455:	89 88 c4 00 00 00    	mov    %ecx,0xc4(%eax)
     45b:	31 c0                	xor    %eax,%eax
     45d:	83 c4 0c             	add    $0xc,%esp
     460:	5b                   	pop    %ebx
     461:	5e                   	pop    %esi
     462:	5f                   	pop    %edi
     463:	5d                   	pop    %ebp
     464:	c3                   	ret    

00000465 <dm_free_md_mempools>:
     465:	85 c0                	test   %eax,%eax
     467:	53                   	push   %ebx
     468:	89 c3                	mov    %eax,%ebx
     46a:	74 2b                	je     497 <dm_free_md_mempools+0x32>
     46c:	8b 00                	mov    (%eax),%eax
     46e:	85 c0                	test   %eax,%eax
     470:	74 05                	je     477 <dm_free_md_mempools+0x12>
     472:	e8 fc ff ff ff       	call   473 <dm_free_md_mempools+0xe>
			473: R_386_PC32	mempool_destroy
     477:	8b 43 04             	mov    0x4(%ebx),%eax
     47a:	85 c0                	test   %eax,%eax
     47c:	74 05                	je     483 <dm_free_md_mempools+0x1e>
     47e:	e8 fc ff ff ff       	call   47f <dm_free_md_mempools+0x1a>
			47f: R_386_PC32	mempool_destroy
     483:	8b 43 08             	mov    0x8(%ebx),%eax
     486:	85 c0                	test   %eax,%eax
     488:	74 05                	je     48f <dm_free_md_mempools+0x2a>
     48a:	e8 fc ff ff ff       	call   48b <dm_free_md_mempools+0x26>
			48b: R_386_PC32	bioset_free
     48f:	89 d8                	mov    %ebx,%eax
     491:	5b                   	pop    %ebx
     492:	e9 fc ff ff ff       	jmp    493 <dm_free_md_mempools+0x2e>
			493: R_386_PC32	kfree
     497:	5b                   	pop    %ebx
     498:	c3                   	ret    

00000499 <dm_uevent_add>:
     499:	57                   	push   %edi
     49a:	89 d7                	mov    %edx,%edi
     49c:	56                   	push   %esi
     49d:	8d b0 b4 00 00 00    	lea    0xb4(%eax),%esi
     4a3:	53                   	push   %ebx
     4a4:	89 c3                	mov    %eax,%ebx
     4a6:	89 f0                	mov    %esi,%eax
     4a8:	e8 fc ff ff ff       	call   4a9 <dm_uevent_add+0x10>
			4a9: R_386_PC32	_spin_lock_irqsave
     4ad:	8b 8b ac 00 00 00    	mov    0xac(%ebx),%ecx
     4b3:	8d 93 ac 00 00 00    	lea    0xac(%ebx),%edx
     4b9:	89 79 04             	mov    %edi,0x4(%ecx)
     4bc:	89 57 04             	mov    %edx,0x4(%edi)
     4bf:	89 0f                	mov    %ecx,(%edi)
     4c1:	89 c2                	mov    %eax,%edx
     4c3:	89 f0                	mov    %esi,%eax
     4c5:	89 bb ac 00 00 00    	mov    %edi,0xac(%ebx)
     4cb:	5b                   	pop    %ebx
     4cc:	5e                   	pop    %esi
     4cd:	5f                   	pop    %edi
     4ce:	e9 fc ff ff ff       	jmp    4cf <dm_uevent_add+0x36>
			4cf: R_386_PC32	_spin_unlock_irqrestore

000004d3 <dm_wait_event>:
     4d3:	55                   	push   %ebp
     4d4:	57                   	push   %edi
     4d5:	56                   	push   %esi
     4d6:	89 c6                	mov    %eax,%esi
     4d8:	53                   	push   %ebx
     4d9:	31 db                	xor    %ebx,%ebx
     4db:	83 ec 18             	sub    $0x18,%esp
     4de:	89 14 24             	mov    %edx,(%esp)
     4e1:	8b 80 98 00 00 00    	mov    0x98(%eax),%eax
     4e7:	39 c2                	cmp    %eax,%edx
     4e9:	75 73                	jne    55e <dm_wait_event+0x8b>
     4eb:	31 c0                	xor    %eax,%eax
     4ed:	b9 05 00 00 00       	mov    $0x5,%ecx
     4f2:	8d 7c 24 04          	lea    0x4(%esp),%edi
     4f6:	f3 ab                	rep stos %eax,%es:(%edi)
     4f8:	8d 44 24 10          	lea    0x10(%esp),%eax
     4fc:	64 8b 1d 00 00 00 00 	mov    %fs:0x0,%ebx
			4ff: R_386_32	per_cpu__current_task
     503:	c7 44 24 0c 00 00 00 	movl   $0x0,0xc(%esp)
     50a:	00 
			507: R_386_32	autoremove_wake_function
     50b:	8d be 9c 00 00 00    	lea    0x9c(%esi),%edi
     511:	89 5c 24 08          	mov    %ebx,0x8(%esp)
     515:	8d 6c 24 04          	lea    0x4(%esp),%ebp
     519:	89 44 24 10          	mov    %eax,0x10(%esp)
     51d:	89 44 24 14          	mov    %eax,0x14(%esp)
     521:	89 f8                	mov    %edi,%eax
     523:	b9 01 00 00 00       	mov    $0x1,%ecx
     528:	89 ea                	mov    %ebp,%edx
     52a:	e8 fc ff ff ff       	call   52b <dm_wait_event+0x58>
			52b: R_386_PC32	prepare_to_wait
     52f:	8b 86 98 00 00 00    	mov    0x98(%esi),%eax
     535:	39 04 24             	cmp    %eax,(%esp)
     538:	75 17                	jne    551 <dm_wait_event+0x7e>
     53a:	8b 43 04             	mov    0x4(%ebx),%eax
     53d:	f6 40 08 04          	testb  $0x4,0x8(%eax)
     541:	74 07                	je     54a <dm_wait_event+0x77>
     543:	bb 00 fe ff ff       	mov    $0xfffffe00,%ebx
     548:	eb 09                	jmp    553 <dm_wait_event+0x80>
     54a:	e8 fc ff ff ff       	call   54b <dm_wait_event+0x78>
			54b: R_386_PC32	schedule
     54f:	eb d0                	jmp    521 <dm_wait_event+0x4e>
     551:	31 db                	xor    %ebx,%ebx
     553:	8d 54 24 04          	lea    0x4(%esp),%edx
     557:	89 f8                	mov    %edi,%eax
     559:	e8 fc ff ff ff       	call   55a <dm_wait_event+0x87>
			55a: R_386_PC32	finish_wait
     55e:	83 c4 18             	add    $0x18,%esp
     561:	89 d8                	mov    %ebx,%eax
     563:	5b                   	pop    %ebx
     564:	5e                   	pop    %esi
     565:	5f                   	pop    %edi
     566:	5d                   	pop    %ebp
     567:	c3                   	ret    

00000568 <dm_kobject_uevent>:
     568:	53                   	push   %ebx
     569:	89 c3                	mov    %eax,%ebx
     56b:	83 ec 28             	sub    $0x28,%esp
     56e:	65 a1 14 00 00 00    	mov    %gs:0x14,%eax
     574:	89 44 24 24          	mov    %eax,0x24(%esp)
     578:	31 c0                	xor    %eax,%eax
     57a:	8d 44 24 0c          	lea    0xc(%esp),%eax
     57e:	85 c9                	test   %ecx,%ecx
     580:	89 44 24 04          	mov    %eax,0x4(%esp)
     584:	c7 44 24 08 00 00 00 	movl   $0x0,0x8(%esp)
     58b:	00 
     58c:	75 0d                	jne    59b <dm_kobject_uevent+0x33>
     58e:	8b 43 38             	mov    0x38(%ebx),%eax
     591:	83 c0 54             	add    $0x54,%eax
     594:	e8 fc ff ff ff       	call   595 <dm_kobject_uevent+0x2d>
			595: R_386_PC32	kobject_uevent
     599:	eb 2d                	jmp    5c8 <dm_kobject_uevent+0x60>
     59b:	51                   	push   %ecx
     59c:	68 1f 04 00 00       	push   $0x41f
			59d: R_386_32	.rodata.str1.1
     5a1:	68 29 04 00 00       	push   $0x429
			5a2: R_386_32	.rodata.str1.1
     5a6:	6a 18                	push   $0x18
     5a8:	50                   	push   %eax
     5a9:	89 54 24 14          	mov    %edx,0x14(%esp)
     5ad:	e8 fc ff ff ff       	call   5ae <dm_kobject_uevent+0x46>
			5ae: R_386_PC32	snprintf
     5b2:	8b 43 38             	mov    0x38(%ebx),%eax
     5b5:	8b 54 24 14          	mov    0x14(%esp),%edx
     5b9:	83 c0 54             	add    $0x54,%eax
     5bc:	8d 4c 24 18          	lea    0x18(%esp),%ecx
     5c0:	e8 fc ff ff ff       	call   5c1 <dm_kobject_uevent+0x59>
			5c1: R_386_PC32	kobject_uevent_env
     5c5:	83 c4 14             	add    $0x14,%esp
     5c8:	8b 44 24 24          	mov    0x24(%esp),%eax
     5cc:	65 33 05 14 00 00 00 	xor    %gs:0x14,%eax
     5d3:	74 05                	je     5da <dm_kobject_uevent+0x72>
     5d5:	e8 fc ff ff ff       	call   5d6 <dm_kobject_uevent+0x6e>
			5d6: R_386_PC32	__stack_chk_fail
     5da:	83 c4 28             	add    $0x28,%esp
     5dd:	5b                   	pop    %ebx
     5de:	c3                   	ret    

000005df <unlock_fs>:
     5df:	53                   	push   %ebx
     5e0:	89 c3                	mov    %eax,%ebx
     5e2:	f6 40 30 04          	testb  $0x4,0x30(%eax)
     5e6:	74 20                	je     608 <unlock_fs+0x29>
     5e8:	8b 90 b8 00 00 00    	mov    0xb8(%eax),%edx
     5ee:	8b 80 bc 00 00 00    	mov    0xbc(%eax),%eax
     5f4:	e8 fc ff ff ff       	call   5f5 <unlock_fs+0x16>
			5f5: R_386_PC32	thaw_bdev
     5f9:	c7 83 b8 00 00 00 00 	movl   $0x0,0xb8(%ebx)
     600:	00 00 00 
     603:	f0 80 63 30 fb       	lock andb $0xfb,0x30(%ebx)
     608:	5b                   	pop    %ebx
     609:	c3                   	ret    

0000060a <stop_queue>:
     60a:	56                   	push   %esi
     60b:	53                   	push   %ebx
     60c:	89 c3                	mov    %eax,%ebx
     60e:	8b 80 b8 01 00 00    	mov    0x1b8(%eax),%eax
     614:	e8 fc ff ff ff       	call   615 <stop_queue+0xb>
			615: R_386_PC32	_spin_lock_irqsave
     619:	89 c6                	mov    %eax,%esi
     61b:	89 d8                	mov    %ebx,%eax
     61d:	e8 fc ff ff ff       	call   61e <stop_queue+0x14>
			61e: R_386_PC32	blk_stop_queue
     622:	8b 83 b8 01 00 00    	mov    0x1b8(%ebx),%eax
     628:	89 f2                	mov    %esi,%edx
     62a:	5b                   	pop    %ebx
     62b:	5e                   	pop    %esi
     62c:	e9 fc ff ff ff       	jmp    62d <stop_queue+0x23>
			62d: R_386_PC32	_spin_unlock_irqrestore

00000631 <__unbind>:
     631:	57                   	push   %edi
     632:	56                   	push   %esi
     633:	53                   	push   %ebx
     634:	8b b0 88 00 00 00    	mov    0x88(%eax),%esi
     63a:	89 c3                	mov    %eax,%ebx
     63c:	85 f6                	test   %esi,%esi
     63e:	74 32                	je     672 <__unbind+0x41>
     640:	31 c9                	xor    %ecx,%ecx
     642:	31 d2                	xor    %edx,%edx
     644:	89 f0                	mov    %esi,%eax
     646:	e8 fc ff ff ff       	call   647 <__unbind+0x16>
			647: R_386_PC32	dm_table_event_callback
     64b:	8d 7b 24             	lea    0x24(%ebx),%edi
     64e:	89 f8                	mov    %edi,%eax
     650:	e8 fc ff ff ff       	call   651 <__unbind+0x20>
			651: R_386_PC32	_write_lock_irqsave
     655:	c7 83 88 00 00 00 00 	movl   $0x0,0x88(%ebx)
     65c:	00 00 00 
     65f:	89 c2                	mov    %eax,%edx
     661:	89 f8                	mov    %edi,%eax
     663:	e8 fc ff ff ff       	call   664 <__unbind+0x33>
			664: R_386_PC32	_write_unlock_irqrestore
     668:	89 f0                	mov    %esi,%eax
     66a:	5b                   	pop    %ebx
     66b:	5e                   	pop    %esi
     66c:	5f                   	pop    %edi
     66d:	e9 fc ff ff ff       	jmp    66e <__unbind+0x3d>
			66e: R_386_PC32	dm_table_destroy
     672:	5b                   	pop    %ebx
     673:	5e                   	pop    %esi
     674:	5f                   	pop    %edi
     675:	c3                   	ret    

00000676 <dm_swap_table>:
     676:	55                   	push   %ebp
     677:	89 c5                	mov    %eax,%ebp
     679:	57                   	push   %edi
     67a:	56                   	push   %esi
     67b:	53                   	push   %ebx
     67c:	83 ec 40             	sub    $0x40,%esp
     67f:	8d 40 10             	lea    0x10(%eax),%eax
     682:	89 14 24             	mov    %edx,(%esp)
     685:	89 44 24 0c          	mov    %eax,0xc(%esp)
     689:	e8 fc ff ff ff       	call   68a <dm_swap_table+0x14>
			68a: R_386_PC32	mutex_lock
     68e:	c7 44 24 08 ea ff ff 	movl   $0xffffffea,0x8(%esp)
     695:	ff 
     696:	f6 45 30 02          	testb  $0x2,0x30(%ebp)
     69a:	0f 84 9e 01 00 00    	je     83e <dm_swap_table+0x1c8>
     6a0:	8b 04 24             	mov    (%esp),%eax
     6a3:	8d 54 24 10          	lea    0x10(%esp),%edx
     6a7:	e8 fc ff ff ff       	call   6a8 <dm_swap_table+0x32>
			6a8: R_386_PC32	dm_calculate_queue_limits
     6ac:	85 c0                	test   %eax,%eax
     6ae:	89 44 24 08          	mov    %eax,0x8(%esp)
     6b2:	0f 85 86 01 00 00    	jne    83e <dm_swap_table+0x1c8>
     6b8:	8b 85 88 00 00 00    	mov    0x88(%ebp),%eax
     6be:	85 c0                	test   %eax,%eax
     6c0:	74 23                	je     6e5 <dm_swap_table+0x6f>
     6c2:	e8 fc ff ff ff       	call   6c3 <dm_swap_table+0x4d>
			6c3: R_386_PC32	dm_table_get_type
     6c7:	89 c3                	mov    %eax,%ebx
     6c9:	8b 04 24             	mov    (%esp),%eax
     6cc:	e8 fc ff ff ff       	call   6cd <dm_swap_table+0x57>
			6cd: R_386_PC32	dm_table_get_type
     6d1:	39 c3                	cmp    %eax,%ebx
     6d3:	74 10                	je     6e5 <dm_swap_table+0x6f>
     6d5:	68 2f 04 00 00       	push   $0x42f
			6d6: R_386_32	.rodata.str1.1
     6da:	e8 fc ff ff ff       	call   6db <dm_swap_table+0x65>
			6db: R_386_PC32	printk
     6df:	5d                   	pop    %ebp
     6e0:	e9 59 01 00 00       	jmp    83e <dm_swap_table+0x1c8>
     6e5:	89 e8                	mov    %ebp,%eax
     6e7:	e8 45 ff ff ff       	call   631 <__unbind>
     6ec:	8b 45 34             	mov    0x34(%ebp),%eax
     6ef:	89 44 24 04          	mov    %eax,0x4(%esp)
     6f3:	8b 04 24             	mov    (%esp),%eax
     6f6:	e8 fc ff ff ff       	call   6f7 <dm_swap_table+0x81>
			6f7: R_386_PC32	dm_table_get_size
     6fb:	89 c3                	mov    %eax,%ebx
     6fd:	8b 45 38             	mov    0x38(%ebp),%eax
     700:	89 d6                	mov    %edx,%esi
     702:	3b 50 40             	cmp    0x40(%eax),%edx
     705:	75 05                	jne    70c <dm_swap_table+0x96>
     707:	3b 58 3c             	cmp    0x3c(%eax),%ebx
     70a:	74 0f                	je     71b <dm_swap_table+0xa5>
     70c:	8d bd c0 00 00 00    	lea    0xc0(%ebp),%edi
     712:	b9 02 00 00 00       	mov    $0x2,%ecx
     717:	31 c0                	xor    %eax,%eax
     719:	f3 ab                	rep stos %eax,%es:(%edi)
     71b:	8b 45 38             	mov    0x38(%ebp),%eax
     71e:	89 58 3c             	mov    %ebx,0x3c(%eax)
     721:	89 70 40             	mov    %esi,0x40(%eax)
     724:	8b 85 bc 00 00 00    	mov    0xbc(%ebp),%eax
     72a:	8b 40 04             	mov    0x4(%eax),%eax
     72d:	83 c0 78             	add    $0x78,%eax
     730:	e8 fc ff ff ff       	call   731 <dm_swap_table+0xbb>
			731: R_386_PC32	mutex_lock
     735:	8b 85 bc 00 00 00    	mov    0xbc(%ebp),%eax
     73b:	8b 40 04             	mov    0x4(%eax),%eax
     73e:	ff 40 48             	incl   0x48(%eax)
     741:	89 da                	mov    %ebx,%edx
     743:	89 f1                	mov    %esi,%ecx
     745:	0f a4 d9 09          	shld   $0x9,%ebx,%ecx
     749:	c1 e2 09             	shl    $0x9,%edx
     74c:	89 50 40             	mov    %edx,0x40(%eax)
     74f:	89 48 44             	mov    %ecx,0x44(%eax)
     752:	ff 40 48             	incl   0x48(%eax)
     755:	8b 85 bc 00 00 00    	mov    0xbc(%ebp),%eax
     75b:	8b 40 04             	mov    0x4(%eax),%eax
     75e:	83 c0 78             	add    $0x78,%eax
     761:	e8 fc ff ff ff       	call   762 <dm_swap_table+0xec>
			762: R_386_PC32	mutex_unlock
     766:	89 f0                	mov    %esi,%eax
     768:	09 d8                	or     %ebx,%eax
     76a:	75 0d                	jne    779 <dm_swap_table+0x103>
     76c:	8b 04 24             	mov    (%esp),%eax
     76f:	e8 fc ff ff ff       	call   770 <dm_swap_table+0xfa>
			770: R_386_PC32	dm_table_destroy
     774:	e9 c5 00 00 00       	jmp    83e <dm_swap_table+0x1c8>
     779:	8b 04 24             	mov    (%esp),%eax
     77c:	89 e9                	mov    %ebp,%ecx
     77e:	ba 72 08 00 00       	mov    $0x872,%edx
			77f: R_386_32	.text
     783:	e8 fc ff ff ff       	call   784 <dm_swap_table+0x10e>
			784: R_386_PC32	dm_table_event_callback
     788:	8b 04 24             	mov    (%esp),%eax
     78b:	e8 fc ff ff ff       	call   78c <dm_swap_table+0x116>
			78c: R_386_PC32	dm_table_request_based
     790:	84 c0                	test   %al,%al
     792:	74 12                	je     7a6 <dm_swap_table+0x130>
     794:	8b 44 24 04          	mov    0x4(%esp),%eax
     798:	f6 80 b0 01 00 00 04 	testb  $0x4,0x1b0(%eax)
     79f:	75 05                	jne    7a6 <dm_swap_table+0x130>
     7a1:	e8 64 fe ff ff       	call   60a <stop_queue>
     7a6:	83 bd 8c 00 00 00 00 	cmpl   $0x0,0x8c(%ebp)
     7ad:	74 12                	je     7c1 <dm_swap_table+0x14b>
     7af:	83 bd 90 00 00 00 00 	cmpl   $0x0,0x90(%ebp)
     7b6:	74 09                	je     7c1 <dm_swap_table+0x14b>
     7b8:	83 bd 94 00 00 00 00 	cmpl   $0x0,0x94(%ebp)
     7bf:	75 47                	jne    808 <dm_swap_table+0x192>
     7c1:	8b 04 24             	mov    (%esp),%eax
     7c4:	e8 fc ff ff ff       	call   7c5 <dm_swap_table+0x14f>
			7c5: R_386_PC32	dm_table_get_md_mempools
     7c9:	85 c0                	test   %eax,%eax
     7cb:	74 09                	je     7d6 <dm_swap_table+0x160>
     7cd:	83 bd 8c 00 00 00 00 	cmpl   $0x0,0x8c(%ebp)
     7d4:	74 7d                	je     853 <dm_swap_table+0x1dd>
     7d6:	0f 0b                	ud2a   
     7d8:	eb fe                	jmp    7d8 <dm_swap_table+0x162>
     7da:	8b 10                	mov    (%eax),%edx
     7dc:	89 95 8c 00 00 00    	mov    %edx,0x8c(%ebp)
     7e2:	8b 50 04             	mov    0x4(%eax),%edx
     7e5:	c7 00 00 00 00 00    	movl   $0x0,(%eax)
     7eb:	89 95 90 00 00 00    	mov    %edx,0x90(%ebp)
     7f1:	8b 50 08             	mov    0x8(%eax),%edx
     7f4:	c7 40 04 00 00 00 00 	movl   $0x0,0x4(%eax)
     7fb:	89 95 94 00 00 00    	mov    %edx,0x94(%ebp)
     801:	c7 40 08 00 00 00 00 	movl   $0x0,0x8(%eax)
     808:	8b 04 24             	mov    (%esp),%eax
     80b:	8d 5d 24             	lea    0x24(%ebp),%ebx
     80e:	e8 fc ff ff ff       	call   80f <dm_swap_table+0x199>
			80f: R_386_PC32	dm_table_free_md_mempools
     813:	89 d8                	mov    %ebx,%eax
     815:	e8 fc ff ff ff       	call   816 <dm_swap_table+0x1a0>
			816: R_386_PC32	_write_lock_irqsave
     81a:	89 c7                	mov    %eax,%edi
     81c:	8b 04 24             	mov    (%esp),%eax
     81f:	8d 4c 24 10          	lea    0x10(%esp),%ecx
     823:	89 85 88 00 00 00    	mov    %eax,0x88(%ebp)
     829:	8b 54 24 04          	mov    0x4(%esp),%edx
     82d:	8b 04 24             	mov    (%esp),%eax
     830:	e8 fc ff ff ff       	call   831 <dm_swap_table+0x1bb>
			831: R_386_PC32	dm_table_set_restrictions
     835:	89 fa                	mov    %edi,%edx
     837:	89 d8                	mov    %ebx,%eax
     839:	e8 fc ff ff ff       	call   83a <dm_swap_table+0x1c4>
			83a: R_386_PC32	_write_unlock_irqrestore
     83e:	8b 44 24 0c          	mov    0xc(%esp),%eax
     842:	e8 fc ff ff ff       	call   843 <dm_swap_table+0x1cd>
			843: R_386_PC32	mutex_unlock
     847:	8b 44 24 08          	mov    0x8(%esp),%eax
     84b:	83 c4 40             	add    $0x40,%esp
     84e:	5b                   	pop    %ebx
     84f:	5e                   	pop    %esi
     850:	5f                   	pop    %edi
     851:	5d                   	pop    %ebp
     852:	c3                   	ret    
     853:	83 bd 90 00 00 00 00 	cmpl   $0x0,0x90(%ebp)
     85a:	0f 85 76 ff ff ff    	jne    7d6 <dm_swap_table+0x160>
     860:	83 bd 94 00 00 00 00 	cmpl   $0x0,0x94(%ebp)
     867:	0f 84 6d ff ff ff    	je     7da <dm_swap_table+0x164>
     86d:	e9 64 ff ff ff       	jmp    7d6 <dm_swap_table+0x160>

00000872 <event_callback>:
     872:	55                   	push   %ebp
     873:	57                   	push   %edi
     874:	56                   	push   %esi
     875:	53                   	push   %ebx
     876:	89 c3                	mov    %eax,%ebx
     878:	83 ec 0c             	sub    $0xc,%esp
     87b:	8d 74 24 04          	lea    0x4(%esp),%esi
     87f:	8d 80 b4 00 00 00    	lea    0xb4(%eax),%eax
     885:	89 74 24 04          	mov    %esi,0x4(%esp)
     889:	89 74 24 08          	mov    %esi,0x8(%esp)
     88d:	89 04 24             	mov    %eax,(%esp)
     890:	e8 fc ff ff ff       	call   891 <event_callback+0x1f>
			891: R_386_PC32	_spin_lock_irqsave
     895:	8b bb ac 00 00 00    	mov    0xac(%ebx),%edi
     89b:	8d 8b ac 00 00 00    	lea    0xac(%ebx),%ecx
     8a1:	39 cf                	cmp    %ecx,%edi
     8a3:	89 c2                	mov    %eax,%edx
     8a5:	74 22                	je     8c9 <event_callback+0x57>
     8a7:	8b 6c 24 04          	mov    0x4(%esp),%ebp
     8ab:	8b 83 b0 00 00 00    	mov    0xb0(%ebx),%eax
     8b1:	89 77 04             	mov    %esi,0x4(%edi)
     8b4:	89 7c 24 04          	mov    %edi,0x4(%esp)
     8b8:	89 28                	mov    %ebp,(%eax)
     8ba:	89 45 04             	mov    %eax,0x4(%ebp)
     8bd:	89 8b ac 00 00 00    	mov    %ecx,0xac(%ebx)
     8c3:	89 8b b0 00 00 00    	mov    %ecx,0xb0(%ebx)
     8c9:	8b 04 24             	mov    (%esp),%eax
     8cc:	e8 fc ff ff ff       	call   8cd <event_callback+0x5b>
			8cd: R_386_PC32	_spin_unlock_irqrestore
     8d1:	8b 53 38             	mov    0x38(%ebx),%edx
     8d4:	83 c2 54             	add    $0x54,%edx
     8d7:	8d 44 24 04          	lea    0x4(%esp),%eax
     8db:	e8 fc ff ff ff       	call   8dc <event_callback+0x6a>
			8dc: R_386_PC32	dm_send_uevents
     8e0:	f0 ff 83 98 00 00 00 	lock incl 0x98(%ebx)
     8e7:	b9 01 00 00 00       	mov    $0x1,%ecx
     8ec:	ba 03 00 00 00       	mov    $0x3,%edx
     8f1:	8d 83 9c 00 00 00    	lea    0x9c(%ebx),%eax
     8f7:	6a 00                	push   $0x0
     8f9:	e8 fc ff ff ff       	call   8fa <event_callback+0x88>
			8fa: R_386_PC32	__wake_up
     8fe:	83 c4 10             	add    $0x10,%esp
     901:	5b                   	pop    %ebx
     902:	5e                   	pop    %esi
     903:	5f                   	pop    %edi
     904:	5d                   	pop    %ebp
     905:	c3                   	ret    

00000906 <dm_blk_open>:
     906:	53                   	push   %ebx
     907:	89 c3                	mov    %eax,%ebx
     909:	b8 0c 00 00 00       	mov    $0xc,%eax
			90a: R_386_32	.bss
     90e:	e8 fc ff ff ff       	call   90f <dm_blk_open+0x9>
			90f: R_386_PC32	_spin_lock
     913:	8b 43 50             	mov    0x50(%ebx),%eax
     916:	8b 80 98 01 00 00    	mov    0x198(%eax),%eax
     91c:	85 c0                	test   %eax,%eax
     91e:	74 1e                	je     93e <dm_blk_open+0x38>
     920:	8b 48 30             	mov    0x30(%eax),%ecx
     923:	89 ca                	mov    %ecx,%edx
     925:	c1 ea 04             	shr    $0x4,%edx
     928:	c1 e9 03             	shr    $0x3,%ecx
     92b:	09 ca                	or     %ecx,%edx
     92d:	80 e2 01             	and    $0x1,%dl
     930:	74 04                	je     936 <dm_blk_open+0x30>
     932:	31 c0                	xor    %eax,%eax
     934:	eb 08                	jmp    93e <dm_blk_open+0x38>
     936:	f0 ff 40 28          	lock incl 0x28(%eax)
     93a:	f0 ff 40 2c          	lock incl 0x2c(%eax)
     93e:	fe 05 0c 00 00 00    	incb   0xc
			940: R_386_32	.bss
     944:	83 f8 01             	cmp    $0x1,%eax
     947:	19 c0                	sbb    %eax,%eax
     949:	83 e0 fa             	and    $0xfffffffa,%eax
     94c:	5b                   	pop    %ebx
     94d:	c3                   	ret    

0000094e <dm_lock_for_deletion>:
     94e:	53                   	push   %ebx
     94f:	89 c3                	mov    %eax,%ebx
     951:	b8 0c 00 00 00       	mov    $0xc,%eax
			952: R_386_32	.bss
     956:	e8 fc ff ff ff       	call   957 <dm_lock_for_deletion+0x9>
			957: R_386_PC32	_spin_lock
     95b:	8b 53 2c             	mov    0x2c(%ebx),%edx
     95e:	b8 f0 ff ff ff       	mov    $0xfffffff0,%eax
     963:	85 d2                	test   %edx,%edx
     965:	75 07                	jne    96e <dm_lock_for_deletion+0x20>
     967:	f0 80 4b 30 10       	lock orb $0x10,0x30(%ebx)
     96c:	31 c0                	xor    %eax,%eax
     96e:	fe 05 0c 00 00 00    	incb   0xc
			970: R_386_32	.bss
     974:	5b                   	pop    %ebx
     975:	c3                   	ret    

00000976 <free_minor>:
     976:	53                   	push   %ebx
     977:	89 c3                	mov    %eax,%ebx
     979:	b8 0c 00 00 00       	mov    $0xc,%eax
			97a: R_386_32	.bss
     97e:	e8 fc ff ff ff       	call   97f <free_minor+0x9>
			97f: R_386_PC32	_spin_lock
     983:	89 da                	mov    %ebx,%edx
     985:	b8 10 00 00 00       	mov    $0x10,%eax
			986: R_386_32	.bss
     98a:	e8 fc ff ff ff       	call   98b <free_minor+0x15>
			98b: R_386_PC32	idr_remove
     98f:	fe 05 0c 00 00 00    	incb   0xc
			991: R_386_32	.bss
     995:	5b                   	pop    %ebx
     996:	c3                   	ret    

00000997 <dm_get_md>:
     997:	89 c2                	mov    %eax,%edx
     999:	53                   	push   %ebx
     99a:	89 c3                	mov    %eax,%ebx
     99c:	c1 ea 14             	shr    $0x14,%edx
     99f:	31 c0                	xor    %eax,%eax
     9a1:	3b 15 08 00 00 00    	cmp    0x8,%edx
			9a3: R_386_32	.bss
     9a7:	75 4e                	jne    9f7 <dm_get_md+0x60>
     9a9:	b8 0c 00 00 00       	mov    $0xc,%eax
			9aa: R_386_32	.bss
     9ae:	81 e3 ff ff 0f 00    	and    $0xfffff,%ebx
     9b4:	e8 fc ff ff ff       	call   9b5 <dm_get_md+0x1e>
			9b5: R_386_PC32	_spin_lock
     9b9:	89 da                	mov    %ebx,%edx
     9bb:	b8 10 00 00 00       	mov    $0x10,%eax
			9bc: R_386_32	.bss
     9c0:	e8 fc ff ff ff       	call   9c1 <dm_get_md+0x2a>
			9c1: R_386_PC32	idr_find
     9c5:	85 c0                	test   %eax,%eax
     9c7:	74 20                	je     9e9 <dm_get_md+0x52>
     9c9:	83 f8 ff             	cmp    $0xffffffff,%eax
     9cc:	74 19                	je     9e7 <dm_get_md+0x50>
     9ce:	8b 50 38             	mov    0x38(%eax),%edx
     9d1:	8b 92 40 01 00 00    	mov    0x140(%edx),%edx
     9d7:	81 e2 ff ff 0f 00    	and    $0xfffff,%edx
     9dd:	39 da                	cmp    %ebx,%edx
     9df:	75 06                	jne    9e7 <dm_get_md+0x50>
     9e1:	f6 40 30 08          	testb  $0x8,0x30(%eax)
     9e5:	74 02                	je     9e9 <dm_get_md+0x52>
     9e7:	31 c0                	xor    %eax,%eax
     9e9:	fe 05 0c 00 00 00    	incb   0xc
			9eb: R_386_32	.bss
     9ef:	85 c0                	test   %eax,%eax
     9f1:	74 04                	je     9f7 <dm_get_md+0x60>
     9f3:	f0 ff 40 28          	lock incl 0x28(%eax)
     9f7:	5b                   	pop    %ebx
     9f8:	c3                   	ret    

000009f9 <dm_create>:
     9f9:	55                   	push   %ebp
     9fa:	57                   	push   %edi
     9fb:	56                   	push   %esi
     9fc:	89 c6                	mov    %eax,%esi
     9fe:	53                   	push   %ebx
     9ff:	b8 28 0a 00 00       	mov    $0xa28,%eax
			a00: R_386_32	kmalloc_caches
     a04:	83 ec 08             	sub    $0x8,%esp
     a07:	89 14 24             	mov    %edx,(%esp)
     a0a:	ba d0 80 00 00       	mov    $0x80d0,%edx
     a0f:	e8 fc ff ff ff       	call   a10 <dm_create+0x17>
			a10: R_386_PC32	kmem_cache_alloc
     a14:	8b 2d 2c 0a 00 00    	mov    0xa2c,%ebp
			a16: R_386_32	kmalloc_caches
     a1a:	83 3d 04 00 00 00 00 	cmpl   $0x0,0x4
			a1c: R_386_32	__tracepoint_kmalloc
     a21:	89 c3                	mov    %eax,%ebx
     a23:	74 28                	je     a4d <dm_create+0x54>
     a25:	8b 3d 10 00 00 00    	mov    0x10,%edi
			a27: R_386_32	__tracepoint_kmalloc
     a2b:	85 ff                	test   %edi,%edi
     a2d:	74 1e                	je     a4d <dm_create+0x54>
     a2f:	68 d0 80 00 00       	push   $0x80d0
     a34:	89 da                	mov    %ebx,%edx
     a36:	b8 f9 09 00 00       	mov    $0x9f9,%eax
			a37: R_386_32	.text
     a3b:	b9 04 02 00 00       	mov    $0x204,%ecx
     a40:	55                   	push   %ebp
     a41:	ff 17                	call   *(%edi)
     a43:	83 c7 04             	add    $0x4,%edi
     a46:	83 3f 00             	cmpl   $0x0,(%edi)
     a49:	58                   	pop    %eax
     a4a:	5a                   	pop    %edx
     a4b:	eb e0                	jmp    a2d <dm_create+0x34>
     a4d:	85 db                	test   %ebx,%ebx
     a4f:	75 15                	jne    a66 <dm_create+0x6d>
     a51:	68 8c 04 00 00       	push   $0x48c
			a52: R_386_32	.rodata.str1.1
     a56:	e8 fc ff ff ff       	call   a57 <dm_create+0x5e>
			a57: R_386_PC32	printk
     a5b:	b8 fa ff ff ff       	mov    $0xfffffffa,%eax
     a60:	5d                   	pop    %ebp
     a61:	e9 b8 03 00 00       	jmp    e1e <dm_create+0x425>
     a66:	64 8b 15 00 00 00 00 	mov    %fs:0x0,%edx
			a69: R_386_32	per_cpu__cpu_number
     a6d:	83 3d 00 00 00 00 02 	cmpl   $0x2,0x0
			a6f: R_386_32	__this_module
     a74:	0f 84 98 03 00 00    	je     e12 <dm_create+0x419>
     a7a:	a1 54 01 00 00       	mov    0x154,%eax
			a7b: R_386_32	__this_module
     a7f:	03 04 95 00 00 00 00 	add    0x0(,%edx,4),%eax
			a82: R_386_32	__per_cpu_offset
     a86:	ff 00                	incl   (%eax)
     a88:	a1 54 01 00 00       	mov    0x154,%eax
			a89: R_386_32	__this_module
     a8d:	03 04 95 00 00 00 00 	add    0x0(,%edx,4),%eax
			a90: R_386_32	__per_cpu_offset
     a94:	83 3d 04 00 00 00 00 	cmpl   $0x0,0x4
			a96: R_386_32	__tracepoint_module_get
     a9b:	8b 28                	mov    (%eax),%ebp
     a9d:	0f 84 82 03 00 00    	je     e25 <dm_create+0x42c>
     aa3:	8b 3d 10 00 00 00    	mov    0x10,%edi
			aa5: R_386_32	__tracepoint_module_get
     aa9:	85 ff                	test   %edi,%edi
     aab:	0f 84 74 03 00 00    	je     e25 <dm_create+0x42c>
     ab1:	89 e9                	mov    %ebp,%ecx
     ab3:	ba 7a 0a 00 00       	mov    $0xa7a,%edx
			ab4: R_386_32	.text
     ab8:	b8 00 00 00 00       	mov    $0x0,%eax
			ab9: R_386_32	__this_module
     abd:	ff 17                	call   *(%edi)
     abf:	83 c7 04             	add    $0x4,%edi
     ac2:	83 3f 00             	cmpl   $0x0,(%edi)
     ac5:	eb e4                	jmp    aab <dm_create+0xb2>
     ac7:	ba d0 00 00 00       	mov    $0xd0,%edx
     acc:	b8 10 00 00 00       	mov    $0x10,%eax
			acd: R_386_32	.bss
     ad1:	e8 fc ff ff ff       	call   ad2 <dm_create+0xd9>
			ad2: R_386_PC32	idr_pre_get
     ad6:	85 c0                	test   %eax,%eax
     ad8:	0f 84 2a 03 00 00    	je     e08 <dm_create+0x40f>
     ade:	b8 0c 00 00 00       	mov    $0xc,%eax
			adf: R_386_32	.bss
     ae3:	e8 fc ff ff ff       	call   ae4 <dm_create+0xeb>
			ae4: R_386_PC32	_spin_lock
     ae8:	83 ca ff             	or     $0xffffffff,%edx
     aeb:	b8 10 00 00 00       	mov    $0x10,%eax
			aec: R_386_32	.bss
     af0:	8d 4c 24 04          	lea    0x4(%esp),%ecx
     af4:	e8 fc ff ff ff       	call   af5 <dm_create+0xfc>
			af5: R_386_PC32	idr_get_new
     af9:	83 ca ff             	or     $0xffffffff,%edx
     afc:	85 c0                	test   %eax,%eax
     afe:	75 1e                	jne    b1e <dm_create+0x125>
     b00:	8b 54 24 04          	mov    0x4(%esp),%edx
     b04:	81 fa ff ff 0f 00    	cmp    $0xfffff,%edx
     b0a:	7e 12                	jle    b1e <dm_create+0x125>
     b0c:	b8 10 00 00 00       	mov    $0x10,%eax
			b0d: R_386_32	.bss
     b11:	e8 fc ff ff ff       	call   b12 <dm_create+0x119>
			b12: R_386_PC32	idr_remove
     b16:	83 ca ff             	or     $0xffffffff,%edx
     b19:	b8 e4 ff ff ff       	mov    $0xffffffe4,%eax
     b1e:	fe 05 0c 00 00 00    	incb   0xc
			b20: R_386_32	.bss
     b24:	89 d6                	mov    %edx,%esi
     b26:	eb 7a                	jmp    ba2 <dm_create+0x1a9>
     b28:	81 fe ff ff 0f 00    	cmp    $0xfffff,%esi
     b2e:	0f 8f d4 02 00 00    	jg     e08 <dm_create+0x40f>
     b34:	ba d0 00 00 00       	mov    $0xd0,%edx
     b39:	b8 10 00 00 00       	mov    $0x10,%eax
			b3a: R_386_32	.bss
     b3e:	e8 fc ff ff ff       	call   b3f <dm_create+0x146>
			b3f: R_386_PC32	idr_pre_get
     b43:	85 c0                	test   %eax,%eax
     b45:	0f 84 bd 02 00 00    	je     e08 <dm_create+0x40f>
     b4b:	b8 0c 00 00 00       	mov    $0xc,%eax
			b4c: R_386_32	.bss
     b50:	e8 fc ff ff ff       	call   b51 <dm_create+0x158>
			b51: R_386_PC32	_spin_lock
     b55:	89 f2                	mov    %esi,%edx
     b57:	b8 10 00 00 00       	mov    $0x10,%eax
			b58: R_386_32	.bss
     b5c:	e8 fc ff ff ff       	call   b5d <dm_create+0x164>
			b5d: R_386_PC32	idr_find
     b61:	89 c2                	mov    %eax,%edx
     b63:	b8 f0 ff ff ff       	mov    $0xfffffff0,%eax
     b68:	85 d2                	test   %edx,%edx
     b6a:	75 30                	jne    b9c <dm_create+0x1a3>
     b6c:	8d 44 24 04          	lea    0x4(%esp),%eax
     b70:	83 ca ff             	or     $0xffffffff,%edx
     b73:	50                   	push   %eax
     b74:	89 f1                	mov    %esi,%ecx
     b76:	b8 10 00 00 00       	mov    $0x10,%eax
			b77: R_386_32	.bss
     b7b:	e8 fc ff ff ff       	call   b7c <dm_create+0x183>
			b7c: R_386_PC32	idr_get_new_above
     b80:	5f                   	pop    %edi
     b81:	85 c0                	test   %eax,%eax
     b83:	75 17                	jne    b9c <dm_create+0x1a3>
     b85:	8b 54 24 04          	mov    0x4(%esp),%edx
     b89:	39 f2                	cmp    %esi,%edx
     b8b:	74 0f                	je     b9c <dm_create+0x1a3>
     b8d:	b8 10 00 00 00       	mov    $0x10,%eax
			b8e: R_386_32	.bss
     b92:	e8 fc ff ff ff       	call   b93 <dm_create+0x19a>
			b93: R_386_PC32	idr_remove
     b97:	b8 f0 ff ff ff       	mov    $0xfffffff0,%eax
     b9c:	fe 05 0c 00 00 00    	incb   0xc
			b9e: R_386_32	.bss
     ba2:	85 c0                	test   %eax,%eax
     ba4:	0f 88 5e 02 00 00    	js     e08 <dm_create+0x40f>
     baa:	b9 24 00 00 00       	mov    $0x24,%ecx
			bab: R_386_32	.bss
     baf:	ba cf 04 00 00       	mov    $0x4cf,%edx
			bb0: R_386_32	.rodata.str1.1
     bb4:	89 d8                	mov    %ebx,%eax
     bb6:	e8 fc ff ff ff       	call   bb7 <dm_create+0x1be>
			bb7: R_386_PC32	__init_rwsem
     bbb:	8d 43 10             	lea    0x10(%ebx),%eax
     bbe:	b9 24 00 00 00       	mov    $0x24,%ecx
			bbf: R_386_32	.bss
     bc3:	ba dc 04 00 00       	mov    $0x4dc,%edx
			bc4: R_386_32	.rodata.str1.1
     bc8:	e8 fc ff ff ff       	call   bc9 <dm_create+0x1d0>
			bc9: R_386_PC32	__mutex_init
     bcd:	8d 83 ac 00 00 00    	lea    0xac(%ebx),%eax
     bd3:	31 d2                	xor    %edx,%edx
     bd5:	c7 43 28 01 00 00 00 	movl   $0x1,0x28(%ebx)
     bdc:	89 83 ac 00 00 00    	mov    %eax,0xac(%ebx)
     be2:	c7 43 2c 00 00 00 00 	movl   $0x0,0x2c(%ebx)
     be9:	89 83 b0 00 00 00    	mov    %eax,0xb0(%ebx)
     bef:	b8 bb 27 00 00       	mov    $0x27bb,%eax
			bf0: R_386_32	.text
     bf4:	c7 83 98 00 00 00 00 	movl   $0x0,0x98(%ebx)
     bfb:	00 00 00 
     bfe:	c7 43 7c 00 00 00 00 	movl   $0x0,0x7c(%ebx)
     c05:	c7 43 24 00 00 00 01 	movl   $0x1000000,0x24(%ebx)
     c0c:	c7 83 a8 00 00 00 00 	movl   $0x0,0xa8(%ebx)
     c13:	00 00 00 
     c16:	c7 83 b4 00 00 00 00 	movl   $0x0,0xb4(%ebx)
     c1d:	00 00 00 
     c20:	e8 fc ff ff ff       	call   c21 <dm_create+0x228>
			c21: R_386_PC32	blk_init_queue
     c25:	85 c0                	test   %eax,%eax
     c27:	89 43 34             	mov    %eax,0x34(%ebx)
     c2a:	0f 84 d1 01 00 00    	je     e01 <dm_create+0x408>
     c30:	0f ba b0 b0 01 00 00 	btrl   $0xd,0x1b0(%eax)
     c37:	0d 
     c38:	8b 43 34             	mov    0x34(%ebx),%eax
     c3b:	8b 50 44             	mov    0x44(%eax),%edx
     c3e:	89 93 90 01 00 00    	mov    %edx,0x190(%ebx)
     c44:	ba 82 24 00 00       	mov    $0x2482,%edx
			c45: R_386_32	.text
     c49:	89 98 a8 01 00 00    	mov    %ebx,0x1a8(%eax)
     c4f:	8b 43 34             	mov    0x34(%ebx),%eax
     c52:	c7 80 d8 00 00 00 6d 	movl   $0x276d,0xd8(%eax)
     c59:	27 00 00 
			c58: R_386_32	.text
     c5c:	8b 43 34             	mov    0x34(%ebx),%eax
     c5f:	89 98 dc 00 00 00    	mov    %ebx,0xdc(%eax)
     c65:	8b 43 34             	mov    0x34(%ebx),%eax
     c68:	e8 fc ff ff ff       	call   c69 <dm_create+0x270>
			c69: R_386_PC32	blk_queue_make_request
     c6d:	8b 43 34             	mov    0x34(%ebx),%eax
     c70:	83 ca ff             	or     $0xffffffff,%edx
     c73:	89 d1                	mov    %edx,%ecx
     c75:	e8 fc ff ff ff       	call   c76 <dm_create+0x27d>
			c76: R_386_PC32	blk_queue_bounce_limit
     c7a:	8b 43 34             	mov    0x34(%ebx),%eax
     c7d:	ba 20 26 00 00       	mov    $0x2620,%edx
			c7e: R_386_32	.text
     c82:	c7 40 4c d3 15 00 00 	movl   $0x15d3,0x4c(%eax)
			c85: R_386_32	.text
     c89:	8b 43 34             	mov    0x34(%ebx),%eax
     c8c:	e8 fc ff ff ff       	call   c8d <dm_create+0x294>
			c8d: R_386_PC32	blk_queue_merge_bvec
     c91:	8b 43 34             	mov    0x34(%ebx),%eax
     c94:	ba 48 1b 00 00       	mov    $0x1b48,%edx
			c95: R_386_32	.text
     c99:	e8 fc ff ff ff       	call   c9a <dm_create+0x2a1>
			c9a: R_386_PC32	blk_queue_softirq_done
     c9e:	8b 43 34             	mov    0x34(%ebx),%eax
     ca1:	ba ba 12 00 00       	mov    $0x12ba,%edx
			ca2: R_386_32	.text
     ca6:	e8 fc ff ff ff       	call   ca7 <dm_create+0x2ae>
			ca7: R_386_PC32	blk_queue_prep_rq
     cab:	8b 43 34             	mov    0x34(%ebx),%eax
     cae:	ba eb 25 00 00       	mov    $0x25eb,%edx
			caf: R_386_32	.text
     cb3:	e8 fc ff ff ff       	call   cb4 <dm_create+0x2bb>
			cb4: R_386_PC32	blk_queue_lld_busy
     cb8:	b8 01 00 00 00       	mov    $0x1,%eax
     cbd:	e8 fc ff ff ff       	call   cbe <dm_create+0x2c5>
			cbe: R_386_PC32	alloc_disk
     cc2:	85 c0                	test   %eax,%eax
     cc4:	89 43 38             	mov    %eax,0x38(%ebx)
     cc7:	0f 84 2c 01 00 00    	je     df9 <dm_create+0x400>
     ccd:	c7 43 50 00 00 00 00 	movl   $0x0,0x50(%ebx)
     cd4:	8d 43 58             	lea    0x58(%ebx),%eax
     cd7:	ba 24 00 00 00       	mov    $0x24,%edx
			cd8: R_386_32	.bss
     cdc:	c7 43 54 00 00 00 00 	movl   $0x0,0x54(%ebx)
     ce3:	e8 fc ff ff ff       	call   ce4 <dm_create+0x2eb>
			ce4: R_386_PC32	__init_waitqueue_head
     ce8:	8d 43 68             	lea    0x68(%ebx),%eax
     ceb:	ba 24 00 00 00       	mov    $0x24,%edx
			cec: R_386_32	.bss
     cf0:	89 43 68             	mov    %eax,0x68(%ebx)
     cf3:	89 43 6c             	mov    %eax,0x6c(%ebx)
     cf6:	8d 83 9c 00 00 00    	lea    0x9c(%ebx),%eax
     cfc:	c7 43 64 00 00 00 00 	movl   $0x0,0x64(%ebx)
     d03:	c7 43 70 7d 23 00 00 	movl   $0x237d,0x70(%ebx)
			d06: R_386_32	.text
     d0a:	e8 fc ff ff ff       	call   d0b <dm_create+0x312>
			d0b: R_386_PC32	__init_waitqueue_head
     d0f:	8b 43 38             	mov    0x38(%ebx),%eax
     d12:	8b 15 08 00 00 00    	mov    0x8,%edx
			d14: R_386_32	.bss
     d18:	89 10                	mov    %edx,(%eax)
     d1a:	8b 43 38             	mov    0x38(%ebx),%eax
     d1d:	89 70 04             	mov    %esi,0x4(%eax)
     d20:	8b 43 38             	mov    0x38(%ebx),%eax
     d23:	c7 80 90 01 00 00 6c 	movl   $0x6c,0x190(%eax)
     d2a:	00 00 00 
			d29: R_386_32	.rodata
     d2d:	8b 53 34             	mov    0x34(%ebx),%edx
     d30:	8b 43 38             	mov    0x38(%ebx),%eax
     d33:	89 90 94 01 00 00    	mov    %edx,0x194(%eax)
     d39:	8b 43 38             	mov    0x38(%ebx),%eax
     d3c:	89 98 98 01 00 00    	mov    %ebx,0x198(%eax)
     d42:	56                   	push   %esi
     d43:	68 ee 04 00 00       	push   $0x4ee
			d44: R_386_32	.rodata.str1.1
     d48:	8b 43 38             	mov    0x38(%ebx),%eax
     d4b:	83 c0 0c             	add    $0xc,%eax
     d4e:	50                   	push   %eax
     d4f:	e8 fc ff ff ff       	call   d50 <dm_create+0x357>
			d50: R_386_PC32	sprintf
     d54:	8b 43 38             	mov    0x38(%ebx),%eax
     d57:	e8 fc ff ff ff       	call   d58 <dm_create+0x35f>
			d58: R_386_PC32	add_disk
     d5c:	a1 08 00 00 00       	mov    0x8,%eax
			d5d: R_386_32	.bss
     d61:	c1 e0 14             	shl    $0x14,%eax
     d64:	09 f0                	or     %esi,%eax
     d66:	89 c2                	mov    %eax,%edx
     d68:	81 e2 ff ff 0f 00    	and    $0xfffff,%edx
     d6e:	52                   	push   %edx
     d6f:	c1 e8 14             	shr    $0x14,%eax
     d72:	50                   	push   %eax
     d73:	68 f4 04 00 00       	push   $0x4f4
			d74: R_386_32	.rodata.str1.1
     d78:	8d 43 3c             	lea    0x3c(%ebx),%eax
     d7b:	50                   	push   %eax
     d7c:	e8 fc ff ff ff       	call   d7d <dm_create+0x384>
			d7d: R_386_PC32	sprintf
     d81:	31 c9                	xor    %ecx,%ecx
     d83:	ba 01 00 00 00       	mov    $0x1,%edx
     d88:	b8 fa 04 00 00       	mov    $0x4fa,%eax
			d89: R_386_32	.rodata.str1.1
     d8d:	6a 00                	push   $0x0
     d8f:	6a 00                	push   $0x0
     d91:	6a 00                	push   $0x0
     d93:	e8 fc ff ff ff       	call   d94 <dm_create+0x39b>
			d94: R_386_PC32	__create_workqueue_key
     d98:	83 c4 28             	add    $0x28,%esp
     d9b:	85 c0                	test   %eax,%eax
     d9d:	89 83 84 00 00 00    	mov    %eax,0x84(%ebx)
     da3:	74 44                	je     de9 <dm_create+0x3f0>
     da5:	8b 43 38             	mov    0x38(%ebx),%eax
     da8:	31 d2                	xor    %edx,%edx
     daa:	e8 fc ff ff ff       	call   dab <dm_create+0x3b2>
			dab: R_386_PC32	bdget_disk
     daf:	85 c0                	test   %eax,%eax
     db1:	89 83 bc 00 00 00    	mov    %eax,0xbc(%ebx)
     db7:	74 25                	je     dde <dm_create+0x3e5>
     db9:	b8 0c 00 00 00       	mov    $0xc,%eax
			dba: R_386_32	.bss
     dbe:	e8 fc ff ff ff       	call   dbf <dm_create+0x3c6>
			dbf: R_386_PC32	_spin_lock
     dc3:	89 f1                	mov    %esi,%ecx
     dc5:	89 da                	mov    %ebx,%edx
     dc7:	b8 10 00 00 00       	mov    $0x10,%eax
			dc8: R_386_32	.bss
     dcc:	e8 fc ff ff ff       	call   dcd <dm_create+0x3d4>
			dcd: R_386_PC32	idr_replace
     dd1:	fe 05 0c 00 00 00    	incb   0xc
			dd3: R_386_32	.bss
     dd7:	40                   	inc    %eax
     dd8:	74 59                	je     e33 <dm_create+0x43a>
     dda:	0f 0b                	ud2a   
     ddc:	eb fe                	jmp    ddc <dm_create+0x3e3>
     dde:	8b 83 84 00 00 00    	mov    0x84(%ebx),%eax
     de4:	e8 fc ff ff ff       	call   de5 <dm_create+0x3ec>
			de5: R_386_PC32	destroy_workqueue
     de9:	8b 43 38             	mov    0x38(%ebx),%eax
     dec:	e8 fc ff ff ff       	call   ded <dm_create+0x3f4>
			ded: R_386_PC32	del_gendisk
     df1:	8b 43 38             	mov    0x38(%ebx),%eax
     df4:	e8 fc ff ff ff       	call   df5 <dm_create+0x3fc>
			df5: R_386_PC32	put_disk
     df9:	8b 43 34             	mov    0x34(%ebx),%eax
     dfc:	e8 fc ff ff ff       	call   dfd <dm_create+0x404>
			dfd: R_386_PC32	blk_cleanup_queue
     e01:	89 f0                	mov    %esi,%eax
     e03:	e8 6e fb ff ff       	call   976 <free_minor>
     e08:	b8 00 00 00 00       	mov    $0x0,%eax
			e09: R_386_32	__this_module
     e0d:	e8 fc ff ff ff       	call   e0e <dm_create+0x415>
			e0e: R_386_PC32	module_put
     e12:	89 d8                	mov    %ebx,%eax
     e14:	e8 fc ff ff ff       	call   e15 <dm_create+0x41c>
			e15: R_386_PC32	kfree
     e19:	b8 fa ff ff ff       	mov    $0xfffffffa,%eax
     e1e:	5a                   	pop    %edx
     e1f:	59                   	pop    %ecx
     e20:	5b                   	pop    %ebx
     e21:	5e                   	pop    %esi
     e22:	5f                   	pop    %edi
     e23:	5d                   	pop    %ebp
     e24:	c3                   	ret    
     e25:	83 fe ff             	cmp    $0xffffffff,%esi
     e28:	0f 85 fa fc ff ff    	jne    b28 <dm_create+0x12f>
     e2e:	e9 94 fc ff ff       	jmp    ac7 <dm_create+0xce>
     e33:	89 d8                	mov    %ebx,%eax
     e35:	e8 fc ff ff ff       	call   e36 <dm_create+0x43d>
			e36: R_386_PC32	dm_sysfs_init
     e3a:	8b 04 24             	mov    (%esp),%eax
     e3d:	89 18                	mov    %ebx,(%eax)
     e3f:	31 c0                	xor    %eax,%eax
     e41:	eb db                	jmp    e1e <dm_create+0x425>

00000e43 <dm_rq_bio_constructor>:
     e43:	57                   	push   %edi
     e44:	89 cf                	mov    %ecx,%edi
     e46:	56                   	push   %esi
     e47:	89 d6                	mov    %edx,%esi
     e49:	53                   	push   %ebx
     e4a:	89 c3                	mov    %eax,%ebx
     e4c:	8b 01                	mov    (%ecx),%eax
     e4e:	ba 20 00 00 00       	mov    $0x20,%edx
     e53:	8b 80 8c 00 00 00    	mov    0x8c(%eax),%eax
     e59:	e8 fc ff ff ff       	call   e5a <dm_rq_bio_constructor+0x17>
			e5a: R_386_PC32	mempool_alloc
     e5e:	ba f4 ff ff ff       	mov    $0xfffffff4,%edx
     e63:	85 c0                	test   %eax,%eax
     e65:	74 18                	je     e7f <dm_rq_bio_constructor+0x3c>
     e67:	89 30                	mov    %esi,(%eax)
     e69:	31 d2                	xor    %edx,%edx
     e6b:	89 78 04             	mov    %edi,0x4(%eax)
     e6e:	c7 43 3c 17 14 00 00 	movl   $0x1417,0x3c(%ebx)
			e71: R_386_32	.text
     e75:	89 43 40             	mov    %eax,0x40(%ebx)
     e78:	c7 43 48 94 12 00 00 	movl   $0x1294,0x48(%ebx)
			e7b: R_386_32	.text
     e7f:	89 d0                	mov    %edx,%eax
     e81:	5b                   	pop    %ebx
     e82:	5e                   	pop    %esi
     e83:	5f                   	pop    %edi
     e84:	c3                   	ret    

00000e85 <end_io_acct>:
     e85:	55                   	push   %ebp
     e86:	57                   	push   %edi
     e87:	8b 3d 00 00 00 00    	mov    0x0,%edi
			e89: R_386_32	jiffies
     e8d:	56                   	push   %esi
     e8e:	53                   	push   %ebx
     e8f:	8b 18                	mov    (%eax),%ebx
     e91:	2b 78 10             	sub    0x10(%eax),%edi
     e94:	8b 40 0c             	mov    0xc(%eax),%eax
     e97:	64 8b 2d 00 00 00 00 	mov    %fs:0x0,%ebp
			e9a: R_386_32	per_cpu__cpu_number
     e9e:	8b 53 38             	mov    0x38(%ebx),%edx
     ea1:	8b 70 14             	mov    0x14(%eax),%esi
     ea4:	89 e8                	mov    %ebp,%eax
     ea6:	83 c2 34             	add    $0x34,%edx
     ea9:	e8 fc ff ff ff       	call   eaa <end_io_acct+0x25>
			eaa: R_386_PC32	part_round_stats
     eae:	8b 43 38             	mov    0x38(%ebx),%eax
     eb1:	83 e6 01             	and    $0x1,%esi
     eb4:	8d 56 04             	lea    0x4(%esi),%edx
     eb7:	8b 80 84 01 00 00    	mov    0x184(%eax),%eax
     ebd:	03 04 ad 00 00 00 00 	add    0x0(,%ebp,4),%eax
			ec0: R_386_32	__per_cpu_offset
     ec4:	01 7c 90 08          	add    %edi,0x8(%eax,%edx,4)
     ec8:	8b 43 38             	mov    0x38(%ebx),%eax
     ecb:	83 b8 74 01 00 00 00 	cmpl   $0x0,0x174(%eax)
     ed2:	74 21                	je     ef5 <end_io_acct+0x70>
     ed4:	31 d2                	xor    %edx,%edx
     ed6:	83 f8 cc             	cmp    $0xffffffcc,%eax
     ed9:	74 06                	je     ee1 <end_io_acct+0x5c>
     edb:	8b 50 4c             	mov    0x4c(%eax),%edx
     ede:	83 ea 4c             	sub    $0x4c,%edx
     ee1:	8b 82 84 01 00 00    	mov    0x184(%edx),%eax
     ee7:	8d 56 04             	lea    0x4(%esi),%edx
     eea:	03 04 ad 00 00 00 00 	add    0x0(,%ebp,4),%eax
			eed: R_386_32	__per_cpu_offset
     ef1:	01 7c 90 08          	add    %edi,0x8(%eax,%edx,4)
     ef5:	8d 46 14             	lea    0x14(%esi),%eax
     ef8:	8b 4b 38             	mov    0x38(%ebx),%ecx
     efb:	8d 14 83             	lea    (%ebx,%eax,4),%edx
     efe:	83 c8 ff             	or     $0xffffffff,%eax
     f01:	f0 0f c1 02          	lock xadd %eax,(%edx)
     f05:	8d 56 5c             	lea    0x5c(%esi),%edx
     f08:	83 f6 01             	xor    $0x1,%esi
     f0b:	48                   	dec    %eax
     f0c:	83 c6 14             	add    $0x14,%esi
     f0f:	89 44 91 0c          	mov    %eax,0xc(%ecx,%edx,4)
     f13:	8b 14 b3             	mov    (%ebx,%esi,4),%edx
     f16:	01 d0                	add    %edx,%eax
     f18:	85 c0                	test   %eax,%eax
     f1a:	75 15                	jne    f31 <end_io_acct+0xac>
     f1c:	b9 01 00 00 00       	mov    $0x1,%ecx
     f21:	ba 03 00 00 00       	mov    $0x3,%edx
     f26:	8d 43 58             	lea    0x58(%ebx),%eax
     f29:	6a 00                	push   $0x0
     f2b:	e8 fc ff ff ff       	call   f2c <end_io_acct+0xa7>
			f2c: R_386_PC32	__wake_up
     f30:	59                   	pop    %ecx
     f31:	5b                   	pop    %ebx
     f32:	5e                   	pop    %esi
     f33:	5f                   	pop    %edi
     f34:	5d                   	pop    %ebp
     f35:	c3                   	ret    

00000f36 <dm_bio_destructor>:
     f36:	8b 50 40             	mov    0x40(%eax),%edx
     f39:	e9 fc ff ff ff       	jmp    f3a <dm_bio_destructor+0x4>
			f3a: R_386_PC32	bio_free

00000f3e <clone_bio>:
     f3e:	55                   	push   %ebp
     f3f:	89 c5                	mov    %eax,%ebp
     f41:	57                   	push   %edi
     f42:	56                   	push   %esi
     f43:	89 ce                	mov    %ecx,%esi
     f45:	53                   	push   %ebx
     f46:	89 d3                	mov    %edx,%ebx
     f48:	83 ec 0c             	sub    $0xc,%esp
     f4b:	8b 44 24 20          	mov    0x20(%esp),%eax
     f4f:	8b 4c 24 2c          	mov    0x2c(%esp),%ecx
     f53:	89 44 24 04          	mov    %eax,0x4(%esp)
     f57:	66 89 44 24 02       	mov    %ax,0x2(%esp)
     f5c:	8b 44 24 24          	mov    0x24(%esp),%eax
     f60:	66 89 44 24 0a       	mov    %ax,0xa(%esp)
     f65:	8b 55 2c             	mov    0x2c(%ebp),%edx
     f68:	b8 10 00 00 00       	mov    $0x10,%eax
     f6d:	e8 fc ff ff ff       	call   f6e <clone_bio+0x30>
			f6e: R_386_PC32	bio_alloc_bioset
     f72:	89 ea                	mov    %ebp,%edx
     f74:	89 c7                	mov    %eax,%edi
     f76:	e8 fc ff ff ff       	call   f77 <clone_bio+0x39>
			f77: R_386_PC32	__bio_clone
     f7b:	83 67 14 df          	andl   $0xffffffdf,0x14(%edi)
     f7f:	c7 47 48 36 0f 00 00 	movl   $0xf36,0x48(%edi)
			f82: R_386_32	.text
     f86:	89 1f                	mov    %ebx,(%edi)
     f88:	89 77 04             	mov    %esi,0x4(%edi)
     f8b:	8b 44 24 04          	mov    0x4(%esp),%eax
     f8f:	66 89 47 1a          	mov    %ax,0x1a(%edi)
     f93:	66 8b 44 24 0a       	mov    0xa(%esp),%ax
     f98:	66 03 44 24 02       	add    0x2(%esp),%ax
     f9d:	66 89 47 18          	mov    %ax,0x18(%edi)
     fa1:	8b 44 24 28          	mov    0x28(%esp),%eax
     fa5:	83 67 10 f7          	andl   $0xfffffff7,0x10(%edi)
     fa9:	c1 e0 09             	shl    $0x9,%eax
     fac:	89 47 20             	mov    %eax,0x20(%edi)
     faf:	83 7d 44 00          	cmpl   $0x0,0x44(%ebp)
     fb3:	74 41                	je     ff6 <clone_bio+0xb8>
     fb5:	ff 74 24 2c          	pushl  0x2c(%esp)
     fb9:	b9 10 00 00 00       	mov    $0x10,%ecx
     fbe:	89 ea                	mov    %ebp,%edx
     fc0:	89 f8                	mov    %edi,%eax
     fc2:	e8 fc ff ff ff       	call   fc3 <clone_bio+0x85>
			fc3: R_386_PC32	bio_integrity_clone
     fc7:	5b                   	pop    %ebx
     fc8:	66 8b 44 24 02       	mov    0x2(%esp),%ax
     fcd:	66 3b 45 1a          	cmp    0x1a(%ebp),%ax
     fd1:	75 08                	jne    fdb <clone_bio+0x9d>
     fd3:	8b 47 20             	mov    0x20(%edi),%eax
     fd6:	3b 45 20             	cmp    0x20(%ebp),%eax
     fd9:	73 1b                	jae    ff6 <clone_bio+0xb8>
     fdb:	0f b7 54 24 02       	movzwl 0x2(%esp),%edx
     fe0:	31 c9                	xor    %ecx,%ecx
     fe2:	89 e8                	mov    %ebp,%eax
     fe4:	e8 fc ff ff ff       	call   fe5 <clone_bio+0xa7>
			fe5: R_386_PC32	bio_sector_offset
     fe9:	8b 4c 24 28          	mov    0x28(%esp),%ecx
     fed:	89 c2                	mov    %eax,%edx
     fef:	89 f8                	mov    %edi,%eax
     ff1:	e8 fc ff ff ff       	call   ff2 <clone_bio+0xb4>
			ff2: R_386_PC32	bio_integrity_trim
     ff6:	83 c4 0c             	add    $0xc,%esp
     ff9:	89 f8                	mov    %edi,%eax
     ffb:	5b                   	pop    %ebx
     ffc:	5e                   	pop    %esi
     ffd:	5f                   	pop    %edi
     ffe:	5d                   	pop    %ebp
     fff:	c3                   	ret    

00001000 <dec_pending>:
    1000:	55                   	push   %ebp
    1001:	89 d5                	mov    %edx,%ebp
    1003:	57                   	push   %edi
    1004:	56                   	push   %esi
    1005:	53                   	push   %ebx
    1006:	89 c3                	mov    %eax,%ebx
    1008:	83 ec 08             	sub    $0x8,%esp
    100b:	85 d2                	test   %edx,%edx
    100d:	8b 30                	mov    (%eax),%esi
    100f:	74 22                	je     1033 <dec_pending+0x33>
    1011:	8d 78 14             	lea    0x14(%eax),%edi
    1014:	89 f8                	mov    %edi,%eax
    1016:	e8 fc ff ff ff       	call   1017 <dec_pending+0x17>
			1017: R_386_PC32	_spin_lock_irqsave
    101b:	83 7b 04 00          	cmpl   $0x0,0x4(%ebx)
    101f:	7e 06                	jle    1027 <dec_pending+0x27>
    1021:	f6 46 30 20          	testb  $0x20,0x30(%esi)
    1025:	75 03                	jne    102a <dec_pending+0x2a>
    1027:	89 6b 04             	mov    %ebp,0x4(%ebx)
    102a:	89 c2                	mov    %eax,%edx
    102c:	89 f8                	mov    %edi,%eax
    102e:	e8 fc ff ff ff       	call   102f <dec_pending+0x2f>
			102f: R_386_PC32	_spin_unlock_irqrestore
    1033:	f0 ff 4b 08          	lock decl 0x8(%ebx)
    1037:	0f 94 c0             	sete   %al
    103a:	84 c0                	test   %al,%al
    103c:	0f 84 c3 00 00 00    	je     1105 <dec_pending+0x105>
    1042:	83 7b 04 02          	cmpl   $0x2,0x4(%ebx)
    1046:	75 3d                	jne    1085 <dec_pending+0x85>
    1048:	8d 7e 7c             	lea    0x7c(%esi),%edi
    104b:	89 f8                	mov    %edi,%eax
    104d:	e8 fc ff ff ff       	call   104e <dec_pending+0x4e>
			104e: R_386_PC32	_spin_lock_irqsave
    1052:	f6 46 30 20          	testb  $0x20,0x30(%esi)
    1056:	74 1d                	je     1075 <dec_pending+0x75>
    1058:	8b 4b 0c             	mov    0xc(%ebx),%ecx
    105b:	f6 41 14 20          	testb  $0x20,0x14(%ecx)
    105f:	75 1b                	jne    107c <dec_pending+0x7c>
    1061:	8b 56 74             	mov    0x74(%esi),%edx
    1064:	89 51 08             	mov    %edx,0x8(%ecx)
    1067:	83 7e 78 00          	cmpl   $0x0,0x78(%esi)
    106b:	89 4e 74             	mov    %ecx,0x74(%esi)
    106e:	75 0c                	jne    107c <dec_pending+0x7c>
    1070:	89 4e 78             	mov    %ecx,0x78(%esi)
    1073:	eb 07                	jmp    107c <dec_pending+0x7c>
    1075:	c7 43 04 fb ff ff ff 	movl   $0xfffffffb,0x4(%ebx)
    107c:	89 c2                	mov    %eax,%edx
    107e:	89 f8                	mov    %edi,%eax
    1080:	e8 fc ff ff ff       	call   1081 <dec_pending+0x81>
			1081: R_386_PC32	_spin_unlock_irqrestore
    1085:	8b 43 0c             	mov    0xc(%ebx),%eax
    1088:	8b 6b 04             	mov    0x4(%ebx),%ebp
    108b:	89 04 24             	mov    %eax,(%esp)
    108e:	f6 40 14 20          	testb  $0x20,0x14(%eax)
    1092:	74 1d                	je     10b1 <dec_pending+0xb1>
    1094:	83 fd a1             	cmp    $0xffffffa1,%ebp
    1097:	74 0f                	je     10a8 <dec_pending+0xa8>
    1099:	83 be 80 00 00 00 00 	cmpl   $0x0,0x80(%esi)
    10a0:	75 06                	jne    10a8 <dec_pending+0xa8>
    10a2:	89 ae 80 00 00 00    	mov    %ebp,0x80(%esi)
    10a8:	89 d8                	mov    %ebx,%eax
    10aa:	e8 d6 fd ff ff       	call   e85 <end_io_acct>
    10af:	eb 41                	jmp    10f2 <dec_pending+0xf2>
    10b1:	89 d8                	mov    %ebx,%eax
    10b3:	e8 cd fd ff ff       	call   e85 <end_io_acct>
    10b8:	83 fd 02             	cmp    $0x2,%ebp
    10bb:	74 35                	je     10f2 <dec_pending+0xf2>
    10bd:	8b 46 34             	mov    0x34(%esi),%eax
    10c0:	83 3d 04 00 00 00 00 	cmpl   $0x0,0x4
			10c2: R_386_32	__tracepoint_block_bio_complete
    10c7:	89 44 24 04          	mov    %eax,0x4(%esp)
    10cb:	74 1b                	je     10e8 <dec_pending+0xe8>
    10cd:	8b 3d 10 00 00 00    	mov    0x10,%edi
			10cf: R_386_32	__tracepoint_block_bio_complete
    10d3:	85 ff                	test   %edi,%edi
    10d5:	74 11                	je     10e8 <dec_pending+0xe8>
    10d7:	8b 14 24             	mov    (%esp),%edx
    10da:	8b 44 24 04          	mov    0x4(%esp),%eax
    10de:	ff 17                	call   *(%edi)
    10e0:	83 c7 04             	add    $0x4,%edi
    10e3:	83 3f 00             	cmpl   $0x0,(%edi)
    10e6:	eb ed                	jmp    10d5 <dec_pending+0xd5>
    10e8:	8b 04 24             	mov    (%esp),%eax
    10eb:	89 ea                	mov    %ebp,%edx
    10ed:	e8 fc ff ff ff       	call   10ee <dec_pending+0xee>
			10ee: R_386_PC32	bio_endio
    10f2:	8b 96 8c 00 00 00    	mov    0x8c(%esi),%edx
    10f8:	89 d8                	mov    %ebx,%eax
    10fa:	5d                   	pop    %ebp
    10fb:	59                   	pop    %ecx
    10fc:	5b                   	pop    %ebx
    10fd:	5e                   	pop    %esi
    10fe:	5f                   	pop    %edi
    10ff:	5d                   	pop    %ebp
    1100:	e9 fc ff ff ff       	jmp    1101 <dec_pending+0x101>
			1101: R_386_PC32	mempool_free
    1105:	5e                   	pop    %esi
    1106:	5f                   	pop    %edi
    1107:	5b                   	pop    %ebx
    1108:	5e                   	pop    %esi
    1109:	5f                   	pop    %edi
    110a:	5d                   	pop    %ebp
    110b:	c3                   	ret    

0000110c <__map_bio>:
    110c:	55                   	push   %ebp
    110d:	57                   	push   %edi
    110e:	56                   	push   %esi
    110f:	89 ce                	mov    %ecx,%esi
    1111:	53                   	push   %ebx
    1112:	89 d3                	mov    %edx,%ebx
    1114:	83 ec 10             	sub    $0x10,%esp
    1117:	c7 42 3c f5 11 00 00 	movl   $0x11f5,0x3c(%edx)
			111a: R_386_32	.text
    111e:	89 4b 40             	mov    %ecx,0x40(%ebx)
    1121:	8b 11                	mov    (%ecx),%edx
    1123:	f0 ff 42 08          	lock incl 0x8(%edx)
    1127:	8b 13                	mov    (%ebx),%edx
    1129:	8b 4b 04             	mov    0x4(%ebx),%ecx
    112c:	89 14 24             	mov    %edx,(%esp)
    112f:	89 da                	mov    %ebx,%edx
    1131:	89 4c 24 04          	mov    %ecx,0x4(%esp)
    1135:	8b 68 04             	mov    0x4(%eax),%ebp
    1138:	8d 4e 08             	lea    0x8(%esi),%ecx
    113b:	ff 55 24             	call   *0x24(%ebp)
    113e:	83 f8 01             	cmp    $0x1,%eax
    1141:	89 c2                	mov    %eax,%edx
    1143:	75 5e                	jne    11a3 <__map_bio+0x97>
    1145:	8b 06                	mov    (%esi),%eax
    1147:	83 3d 04 00 00 00 00 	cmpl   $0x0,0x4
			1149: R_386_32	__tracepoint_block_remap
    114e:	8b 40 0c             	mov    0xc(%eax),%eax
    1151:	8b 40 0c             	mov    0xc(%eax),%eax
    1154:	8b 00                	mov    (%eax),%eax
    1156:	89 44 24 0c          	mov    %eax,0xc(%esp)
    115a:	8b 43 0c             	mov    0xc(%ebx),%eax
    115d:	8b 40 50             	mov    0x50(%eax),%eax
    1160:	8b 80 94 01 00 00    	mov    0x194(%eax),%eax
    1166:	89 44 24 08          	mov    %eax,0x8(%esp)
    116a:	74 29                	je     1195 <__map_bio+0x89>
    116c:	8b 35 10 00 00 00    	mov    0x10,%esi
			116e: R_386_32	__tracepoint_block_remap
    1172:	85 f6                	test   %esi,%esi
    1174:	74 1f                	je     1195 <__map_bio+0x89>
    1176:	8b 3c 24             	mov    (%esp),%edi
    1179:	8b 6c 24 04          	mov    0x4(%esp),%ebp
    117d:	55                   	push   %ebp
    117e:	89 da                	mov    %ebx,%edx
    1180:	57                   	push   %edi
    1181:	8b 44 24 10          	mov    0x10(%esp),%eax
    1185:	8b 4c 24 14          	mov    0x14(%esp),%ecx
    1189:	ff 16                	call   *(%esi)
    118b:	83 c6 04             	add    $0x4,%esi
    118e:	83 3e 00             	cmpl   $0x0,(%esi)
    1191:	58                   	pop    %eax
    1192:	5a                   	pop    %edx
    1193:	75 e8                	jne    117d <__map_bio+0x71>
    1195:	83 c4 10             	add    $0x10,%esp
    1198:	89 d8                	mov    %ebx,%eax
    119a:	5b                   	pop    %ebx
    119b:	5e                   	pop    %esi
    119c:	5f                   	pop    %edi
    119d:	5d                   	pop    %ebp
    119e:	e9 fc ff ff ff       	jmp    119f <__map_bio+0x93>
			119f: R_386_PC32	generic_make_request
    11a3:	83 f8 02             	cmp    $0x2,%eax
    11a6:	74 05                	je     11ad <__map_bio+0xa1>
    11a8:	83 f8 00             	cmp    $0x0,%eax
    11ab:	7d 2d                	jge    11da <__map_bio+0xce>
    11ad:	8b 06                	mov    (%esi),%eax
    11af:	8b 38                	mov    (%eax),%edi
    11b1:	e8 4a fe ff ff       	call   1000 <dec_pending>
    11b6:	8b 87 94 00 00 00    	mov    0x94(%edi),%eax
    11bc:	89 43 40             	mov    %eax,0x40(%ebx)
    11bf:	89 d8                	mov    %ebx,%eax
    11c1:	e8 fc ff ff ff       	call   11c2 <__map_bio+0xb6>
			11c2: R_386_PC32	bio_put
    11c6:	8b 97 90 00 00 00    	mov    0x90(%edi),%edx
    11cc:	89 f0                	mov    %esi,%eax
    11ce:	83 c4 10             	add    $0x10,%esp
    11d1:	5b                   	pop    %ebx
    11d2:	5e                   	pop    %esi
    11d3:	5f                   	pop    %edi
    11d4:	5d                   	pop    %ebp
    11d5:	e9 fc ff ff ff       	jmp    11d6 <__map_bio+0xca>
			11d6: R_386_PC32	mempool_free
    11da:	74 11                	je     11ed <__map_bio+0xe1>
    11dc:	50                   	push   %eax
    11dd:	68 03 05 00 00       	push   $0x503
			11de: R_386_32	.rodata.str1.1
    11e2:	e8 fc ff ff ff       	call   11e3 <__map_bio+0xd7>
			11e3: R_386_PC32	printk
    11e7:	0f 0b                	ud2a   
    11e9:	5b                   	pop    %ebx
    11ea:	5e                   	pop    %esi
    11eb:	eb fe                	jmp    11eb <__map_bio+0xdf>
    11ed:	83 c4 10             	add    $0x10,%esp
    11f0:	5b                   	pop    %ebx
    11f1:	5e                   	pop    %esi
    11f2:	5f                   	pop    %edi
    11f3:	5d                   	pop    %ebp
    11f4:	c3                   	ret    

000011f5 <clone_endio>:
    11f5:	55                   	push   %ebp
    11f6:	57                   	push   %edi
    11f7:	56                   	push   %esi
    11f8:	89 c6                	mov    %eax,%esi
    11fa:	53                   	push   %ebx
    11fb:	89 d3                	mov    %edx,%ebx
    11fd:	83 ec 08             	sub    $0x8,%esp
    1200:	8b 78 40             	mov    0x40(%eax),%edi
    1203:	85 db                	test   %ebx,%ebx
    1205:	8b 07                	mov    (%edi),%eax
    1207:	89 44 24 04          	mov    %eax,0x4(%esp)
    120b:	8b 28                	mov    (%eax),%ebp
    120d:	8b 47 04             	mov    0x4(%edi),%eax
    1210:	8b 50 04             	mov    0x4(%eax),%edx
    1213:	8b 52 2c             	mov    0x2c(%edx),%edx
    1216:	89 14 24             	mov    %edx,(%esp)
    1219:	75 0c                	jne    1227 <clone_endio+0x32>
    121b:	f6 46 10 01          	testb  $0x1,0x10(%esi)
    121f:	ba fb ff ff ff       	mov    $0xfffffffb,%edx
    1224:	0f 44 da             	cmove  %edx,%ebx
    1227:	83 3c 24 00          	cmpl   $0x0,(%esp)
    122b:	74 32                	je     125f <clone_endio+0x6a>
    122d:	8d 57 08             	lea    0x8(%edi),%edx
    1230:	89 d9                	mov    %ebx,%ecx
    1232:	52                   	push   %edx
    1233:	89 f2                	mov    %esi,%edx
    1235:	ff 54 24 04          	call   *0x4(%esp)
    1239:	5a                   	pop    %edx
    123a:	83 f8 02             	cmp    $0x2,%eax
    123d:	74 1e                	je     125d <clone_endio+0x68>
    123f:	85 c0                	test   %eax,%eax
    1241:	78 1a                	js     125d <clone_endio+0x68>
    1243:	83 f8 01             	cmp    $0x1,%eax
    1246:	74 45                	je     128d <clone_endio+0x98>
    1248:	85 c0                	test   %eax,%eax
    124a:	74 13                	je     125f <clone_endio+0x6a>
    124c:	50                   	push   %eax
    124d:	68 46 05 00 00       	push   $0x546
			124e: R_386_32	.rodata.str1.1
    1252:	e8 fc ff ff ff       	call   1253 <clone_endio+0x5e>
			1253: R_386_PC32	printk
    1257:	0f 0b                	ud2a   
    1259:	5d                   	pop    %ebp
    125a:	58                   	pop    %eax
    125b:	eb fe                	jmp    125b <clone_endio+0x66>
    125d:	89 c3                	mov    %eax,%ebx
    125f:	8b 85 94 00 00 00    	mov    0x94(%ebp),%eax
    1265:	89 46 40             	mov    %eax,0x40(%esi)
    1268:	8b 95 90 00 00 00    	mov    0x90(%ebp),%edx
    126e:	89 f8                	mov    %edi,%eax
    1270:	e8 fc ff ff ff       	call   1271 <clone_endio+0x7c>
			1271: R_386_PC32	mempool_free
    1275:	89 f0                	mov    %esi,%eax
    1277:	e8 fc ff ff ff       	call   1278 <clone_endio+0x83>
			1278: R_386_PC32	bio_put
    127c:	89 da                	mov    %ebx,%edx
    127e:	8b 44 24 04          	mov    0x4(%esp),%eax
    1282:	5e                   	pop    %esi
    1283:	5f                   	pop    %edi
    1284:	5b                   	pop    %ebx
    1285:	5e                   	pop    %esi
    1286:	5f                   	pop    %edi
    1287:	5d                   	pop    %ebp
    1288:	e9 73 fd ff ff       	jmp    1000 <dec_pending>
    128d:	59                   	pop    %ecx
    128e:	5b                   	pop    %ebx
    128f:	5b                   	pop    %ebx
    1290:	5e                   	pop    %esi
    1291:	5f                   	pop    %edi
    1292:	5d                   	pop    %ebp
    1293:	c3                   	ret    

00001294 <dm_rq_bio_destructor>:
    1294:	56                   	push   %esi
    1295:	53                   	push   %ebx
    1296:	89 c3                	mov    %eax,%ebx
    1298:	8b 40 40             	mov    0x40(%eax),%eax
    129b:	8b 50 04             	mov    0x4(%eax),%edx
    129e:	8b 32                	mov    (%edx),%esi
    12a0:	8b 96 8c 00 00 00    	mov    0x8c(%esi),%edx
    12a6:	e8 fc ff ff ff       	call   12a7 <dm_rq_bio_destructor+0x13>
			12a7: R_386_PC32	mempool_free
    12ab:	8b 96 94 00 00 00    	mov    0x94(%esi),%edx
    12b1:	89 d8                	mov    %ebx,%eax
    12b3:	5b                   	pop    %ebx
    12b4:	5e                   	pop    %esi
    12b5:	e9 fc ff ff ff       	jmp    12b6 <dm_rq_bio_destructor+0x22>
			12b6: R_386_PC32	bio_free

000012ba <dm_prep_fn>:
    12ba:	57                   	push   %edi
    12bb:	56                   	push   %esi
    12bc:	89 d6                	mov    %edx,%esi
    12be:	53                   	push   %ebx
    12bf:	8b b8 a8 01 00 00    	mov    0x1a8(%eax),%edi
    12c5:	8d 87 c8 00 00 00    	lea    0xc8(%edi),%eax
    12cb:	39 c2                	cmp    %eax,%edx
    12cd:	75 11                	jne    12e0 <dm_prep_fn+0x26>
    12cf:	31 c0                	xor    %eax,%eax
    12d1:	83 bf 34 01 00 00 00 	cmpl   $0x0,0x134(%edi)
    12d8:	0f 95 c0             	setne  %al
    12db:	e9 df 00 00 00       	jmp    13bf <dm_prep_fn+0x105>
    12e0:	83 7a 6c 00          	cmpl   $0x0,0x6c(%edx)
    12e4:	74 15                	je     12fb <dm_prep_fn+0x41>
    12e6:	68 8b 05 00 00       	push   $0x58b
			12e7: R_386_32	.rodata.str1.1
    12eb:	e8 fc ff ff ff       	call   12ec <dm_prep_fn+0x32>
			12ec: R_386_PC32	printk
    12f0:	b8 01 00 00 00       	mov    $0x1,%eax
    12f5:	59                   	pop    %ecx
    12f6:	e9 c4 00 00 00       	jmp    13bf <dm_prep_fn+0x105>
    12fb:	8b 87 90 00 00 00    	mov    0x90(%edi),%eax
    1301:	ba 20 00 00 00       	mov    $0x20,%edx
    1306:	e8 fc ff ff ff       	call   1307 <dm_prep_fn+0x4d>
			1307: R_386_PC32	mempool_alloc
    130b:	89 c3                	mov    %eax,%ebx
    130d:	b8 02 00 00 00       	mov    $0x2,%eax
    1312:	85 db                	test   %ebx,%ebx
    1314:	0f 84 a5 00 00 00    	je     13bf <dm_prep_fn+0x105>
    131a:	89 3b                	mov    %edi,(%ebx)
    131c:	b9 02 00 00 00       	mov    $0x2,%ecx
    1321:	30 c0                	xor    %al,%al
    1323:	c7 43 04 00 00 00 00 	movl   $0x0,0x4(%ebx)
    132a:	8d bb d8 00 00 00    	lea    0xd8(%ebx),%edi
    1330:	89 73 08             	mov    %esi,0x8(%ebx)
    1333:	c7 83 d4 00 00 00 00 	movl   $0x0,0xd4(%ebx)
    133a:	00 00 00 
    133d:	f3 ab                	rep stos %eax,%es:(%edi)
    133f:	8b 03                	mov    (%ebx),%eax
    1341:	8d 7b 0c             	lea    0xc(%ebx),%edi
    1344:	89 f2                	mov    %esi,%edx
    1346:	8b 88 94 00 00 00    	mov    0x94(%eax),%ecx
    134c:	89 f8                	mov    %edi,%eax
    134e:	53                   	push   %ebx
    134f:	68 43 0e 00 00       	push   $0xe43
			1350: R_386_32	.text
    1354:	6a 20                	push   $0x20
    1356:	e8 fc ff ff ff       	call   1357 <dm_prep_fn+0x9d>
			1357: R_386_PC32	blk_rq_prep_clone
    135b:	83 c4 0c             	add    $0xc,%esp
    135e:	85 c0                	test   %eax,%eax
    1360:	75 49                	jne    13ab <dm_prep_fn+0xf1>
    1362:	8b 86 94 00 00 00    	mov    0x94(%esi),%eax
    1368:	89 83 a0 00 00 00    	mov    %eax,0xa0(%ebx)
    136e:	8b 86 80 00 00 00    	mov    0x80(%esi),%eax
    1374:	66 89 83 8c 00 00 00 	mov    %ax,0x8c(%ebx)
    137b:	8b 86 a4 00 00 00    	mov    0xa4(%esi),%eax
    1381:	89 83 b0 00 00 00    	mov    %eax,0xb0(%ebx)
    1387:	8b 46 70             	mov    0x70(%esi),%eax
    138a:	c7 83 c8 00 00 00 c3 	movl   $0x13c3,0xc8(%ebx)
    1391:	13 00 00 
			1390: R_386_32	.text
    1394:	89 9b cc 00 00 00    	mov    %ebx,0xcc(%ebx)
    139a:	89 43 7c             	mov    %eax,0x7c(%ebx)
    139d:	31 c0                	xor    %eax,%eax
    139f:	89 7e 6c             	mov    %edi,0x6c(%esi)
    13a2:	81 4e 24 00 08 00 00 	orl    $0x800,0x24(%esi)
    13a9:	eb 14                	jmp    13bf <dm_prep_fn+0x105>
    13ab:	8b 03                	mov    (%ebx),%eax
    13ad:	8b 90 90 00 00 00    	mov    0x90(%eax),%edx
    13b3:	89 d8                	mov    %ebx,%eax
    13b5:	e8 fc ff ff ff       	call   13b6 <dm_prep_fn+0xfc>
			13b6: R_386_PC32	mempool_free
    13ba:	b8 02 00 00 00       	mov    $0x2,%eax
    13bf:	5b                   	pop    %ebx
    13c0:	5e                   	pop    %esi
    13c1:	5f                   	pop    %edi
    13c2:	c3                   	ret    

000013c3 <end_clone_request>:
    13c3:	56                   	push   %esi
    13c4:	89 d6                	mov    %edx,%esi
    13c6:	53                   	push   %ebx
    13c7:	89 c3                	mov    %eax,%ebx
    13c9:	8b 40 20             	mov    0x20(%eax),%eax
    13cc:	89 da                	mov    %ebx,%edx
    13ce:	e8 fc ff ff ff       	call   13cf <end_clone_request+0xc>
			13cf: R_386_PC32	__blk_put_request
    13d3:	8b 93 c0 00 00 00    	mov    0xc0(%ebx),%edx
    13d9:	8b 42 08             	mov    0x8(%edx),%eax
    13dc:	89 b2 d4 00 00 00    	mov    %esi,0xd4(%edx)
    13e2:	89 58 4c             	mov    %ebx,0x4c(%eax)
    13e5:	5b                   	pop    %ebx
    13e6:	5e                   	pop    %esi
    13e7:	e9 fc ff ff ff       	jmp    13e8 <end_clone_request+0x25>
			13e8: R_386_PC32	blk_complete_request

000013ec <dm_kill_unmapped_request>:
    13ec:	53                   	push   %ebx
    13ed:	8b 88 c0 00 00 00    	mov    0xc0(%eax),%ecx
    13f3:	8b 49 08             	mov    0x8(%ecx),%ecx
    13f6:	81 49 24 00 40 00 00 	orl    $0x4000,0x24(%ecx)
    13fd:	8b 98 c0 00 00 00    	mov    0xc0(%eax),%ebx
    1403:	8b 4b 08             	mov    0x8(%ebx),%ecx
    1406:	89 93 d4 00 00 00    	mov    %edx,0xd4(%ebx)
    140c:	89 41 4c             	mov    %eax,0x4c(%ecx)
    140f:	89 c8                	mov    %ecx,%eax
    1411:	5b                   	pop    %ebx
    1412:	e9 fc ff ff ff       	jmp    1413 <dm_kill_unmapped_request+0x27>
			1413: R_386_PC32	blk_complete_request

00001417 <end_clone_bio>:
    1417:	55                   	push   %ebp
    1418:	57                   	push   %edi
    1419:	89 d7                	mov    %edx,%edi
    141b:	56                   	push   %esi
    141c:	53                   	push   %ebx
    141d:	8b 50 40             	mov    0x40(%eax),%edx
    1420:	8b 5a 04             	mov    0x4(%edx),%ebx
    1423:	8b 32                	mov    (%edx),%esi
    1425:	8b 6e 20             	mov    0x20(%esi),%ebp
    1428:	e8 fc ff ff ff       	call   1429 <end_clone_bio+0x12>
			1429: R_386_PC32	bio_put
    142d:	83 bb d4 00 00 00 00 	cmpl   $0x0,0xd4(%ebx)
    1434:	75 2f                	jne    1465 <end_clone_bio+0x4e>
    1436:	85 ff                	test   %edi,%edi
    1438:	74 08                	je     1442 <end_clone_bio+0x2b>
    143a:	89 bb d4 00 00 00    	mov    %edi,0xd4(%ebx)
    1440:	eb 23                	jmp    1465 <end_clone_bio+0x4e>
    1442:	8b 43 08             	mov    0x8(%ebx),%eax
    1445:	39 70 3c             	cmp    %esi,0x3c(%eax)
    1448:	74 0b                	je     1455 <end_clone_bio+0x3e>
    144a:	68 ca 05 00 00       	push   $0x5ca
			144b: R_386_32	.rodata.str1.1
    144f:	e8 fc ff ff ff       	call   1450 <end_clone_bio+0x39>
			1450: R_386_PC32	printk
    1454:	5e                   	pop    %esi
    1455:	8b 43 08             	mov    0x8(%ebx),%eax
    1458:	89 e9                	mov    %ebp,%ecx
    145a:	31 d2                	xor    %edx,%edx
    145c:	5b                   	pop    %ebx
    145d:	5e                   	pop    %esi
    145e:	5f                   	pop    %edi
    145f:	5d                   	pop    %ebp
    1460:	e9 fc ff ff ff       	jmp    1461 <end_clone_bio+0x4a>
			1461: R_386_PC32	blk_update_request
    1465:	5b                   	pop    %ebx
    1466:	5e                   	pop    %esi
    1467:	5f                   	pop    %edi
    1468:	5d                   	pop    %ebp
    1469:	c3                   	ret    

0000146a <free_rq_clone>:
    146a:	53                   	push   %ebx
    146b:	8b 98 c0 00 00 00    	mov    0xc0(%eax),%ebx
    1471:	e8 fc ff ff ff       	call   1472 <free_rq_clone+0x8>
			1472: R_386_PC32	blk_rq_unprep_clone
    1476:	8b 03                	mov    (%ebx),%eax
    1478:	8b 90 90 00 00 00    	mov    0x90(%eax),%edx
    147e:	89 d8                	mov    %ebx,%eax
    1480:	5b                   	pop    %ebx
    1481:	e9 fc ff ff ff       	jmp    1482 <free_rq_clone+0x18>
			1482: R_386_PC32	mempool_free

00001486 <dm_underlying_device_busy>:
    1486:	e9 fc ff ff ff       	jmp    1487 <dm_underlying_device_busy+0x1>
			1487: R_386_PC32	blk_lld_busy

0000148b <dm_dispatch_request>:
    148b:	53                   	push   %ebx
    148c:	89 c3                	mov    %eax,%ebx
    148e:	8b 40 20             	mov    0x20(%eax),%eax
    1491:	66 83 b8 b0 01 00 00 	cmpw   $0x0,0x1b0(%eax)
    1498:	00 
    1499:	79 07                	jns    14a2 <dm_dispatch_request+0x17>
    149b:	81 4b 24 00 00 00 01 	orl    $0x1000000,0x24(%ebx)
    14a2:	a1 00 00 00 00       	mov    0x0,%eax
			14a3: R_386_32	jiffies
    14a7:	89 da                	mov    %ebx,%edx
    14a9:	89 43 64             	mov    %eax,0x64(%ebx)
    14ac:	8b 43 20             	mov    0x20(%ebx),%eax
    14af:	e8 fc ff ff ff       	call   14b0 <dm_dispatch_request+0x25>
			14b0: R_386_PC32	blk_insert_cloned_request
    14b4:	85 c0                	test   %eax,%eax
    14b6:	89 c1                	mov    %eax,%ecx
    14b8:	74 18                	je     14d2 <dm_dispatch_request+0x47>
    14ba:	8b 93 c0 00 00 00    	mov    0xc0(%ebx),%edx
    14c0:	8b 42 08             	mov    0x8(%edx),%eax
    14c3:	89 8a d4 00 00 00    	mov    %ecx,0xd4(%edx)
    14c9:	89 58 4c             	mov    %ebx,0x4c(%eax)
    14cc:	5b                   	pop    %ebx
    14cd:	e9 fc ff ff ff       	jmp    14ce <dm_dispatch_request+0x43>
			14ce: R_386_PC32	blk_complete_request
    14d2:	5b                   	pop    %ebx
    14d3:	c3                   	ret    

000014d4 <dm_get_table>:
    14d4:	57                   	push   %edi
    14d5:	56                   	push   %esi
    14d6:	8d 70 24             	lea    0x24(%eax),%esi
    14d9:	53                   	push   %ebx
    14da:	89 c3                	mov    %eax,%ebx
    14dc:	89 f0                	mov    %esi,%eax
    14de:	e8 fc ff ff ff       	call   14df <dm_get_table+0xb>
			14df: R_386_PC32	_read_lock_irqsave
    14e3:	8b 9b 88 00 00 00    	mov    0x88(%ebx),%ebx
    14e9:	85 db                	test   %ebx,%ebx
    14eb:	89 c7                	mov    %eax,%edi
    14ed:	74 07                	je     14f6 <dm_get_table+0x22>
    14ef:	89 d8                	mov    %ebx,%eax
    14f1:	e8 fc ff ff ff       	call   14f2 <dm_get_table+0x1e>
			14f2: R_386_PC32	dm_table_get
    14f6:	89 f0                	mov    %esi,%eax
    14f8:	89 fa                	mov    %edi,%edx
    14fa:	e8 fc ff ff ff       	call   14fb <dm_get_table+0x27>
			14fb: R_386_PC32	_read_unlock_irqrestore
    14ff:	89 d8                	mov    %ebx,%eax
    1501:	5b                   	pop    %ebx
    1502:	5e                   	pop    %esi
    1503:	5f                   	pop    %edi
    1504:	c3                   	ret    

00001505 <dm_resume>:
    1505:	55                   	push   %ebp
    1506:	57                   	push   %edi
    1507:	56                   	push   %esi
    1508:	53                   	push   %ebx
    1509:	89 c3                	mov    %eax,%ebx
    150b:	8d 68 10             	lea    0x10(%eax),%ebp
    150e:	83 ec 08             	sub    $0x8,%esp
    1511:	89 e8                	mov    %ebp,%eax
    1513:	e8 fc ff ff ff       	call   1514 <dm_resume+0xf>
			1514: R_386_PC32	mutex_lock
    1518:	f6 43 30 02          	testb  $0x2,0x30(%ebx)
    151c:	75 07                	jne    1525 <dm_resume+0x20>
    151e:	31 f6                	xor    %esi,%esi
    1520:	e9 92 00 00 00       	jmp    15b7 <dm_resume+0xb2>
    1525:	89 d8                	mov    %ebx,%eax
    1527:	e8 fc ff ff ff       	call   1528 <dm_resume+0x23>
			1528: R_386_PC32	dm_get_table
    152c:	85 c0                	test   %eax,%eax
    152e:	89 c6                	mov    %eax,%esi
    1530:	0f 84 81 00 00 00    	je     15b7 <dm_resume+0xb2>
    1536:	e8 fc ff ff ff       	call   1537 <dm_resume+0x32>
			1537: R_386_PC32	dm_table_get_size
    153b:	09 c2                	or     %eax,%edx
    153d:	74 78                	je     15b7 <dm_resume+0xb2>
    153f:	89 f0                	mov    %esi,%eax
    1541:	e8 fc ff ff ff       	call   1542 <dm_resume+0x3d>
			1542: R_386_PC32	dm_table_resume_targets
    1546:	85 c0                	test   %eax,%eax
    1548:	89 c7                	mov    %eax,%edi
    154a:	75 70                	jne    15bc <dm_resume+0xb7>
    154c:	f0 80 63 30 fe       	lock andb $0xfe,0x30(%ebx)
    1551:	8b 83 84 00 00 00    	mov    0x84(%ebx),%eax
    1557:	8d 53 64             	lea    0x64(%ebx),%edx
    155a:	e8 fc ff ff ff       	call   155b <dm_resume+0x56>
			155b: R_386_PC32	queue_work
    155f:	8b 53 34             	mov    0x34(%ebx),%edx
    1562:	f6 82 b1 01 00 00 20 	testb  $0x20,0x1b1(%edx)
    1569:	74 37                	je     15a2 <dm_resume+0x9d>
    156b:	8b 82 b8 01 00 00    	mov    0x1b8(%edx),%eax
    1571:	89 14 24             	mov    %edx,(%esp)
    1574:	e8 fc ff ff ff       	call   1575 <dm_resume+0x70>
			1575: R_386_PC32	_spin_lock_irqsave
    1579:	8b 14 24             	mov    (%esp),%edx
    157c:	89 44 24 04          	mov    %eax,0x4(%esp)
    1580:	f6 82 b0 01 00 00 04 	testb  $0x4,0x1b0(%edx)
    1587:	74 0a                	je     1593 <dm_resume+0x8e>
    1589:	89 d0                	mov    %edx,%eax
    158b:	e8 fc ff ff ff       	call   158c <dm_resume+0x87>
			158c: R_386_PC32	blk_start_queue
    1590:	8b 14 24             	mov    (%esp),%edx
    1593:	8b 82 b8 01 00 00    	mov    0x1b8(%edx),%eax
    1599:	8b 54 24 04          	mov    0x4(%esp),%edx
    159d:	e8 fc ff ff ff       	call   159e <dm_resume+0x99>
			159e: R_386_PC32	_spin_unlock_irqrestore
    15a2:	89 d8                	mov    %ebx,%eax
    15a4:	e8 36 f0 ff ff       	call   5df <unlock_fs>
    15a9:	f0 80 63 30 fd       	lock andb $0xfd,0x30(%ebx)
    15ae:	89 f0                	mov    %esi,%eax
    15b0:	e8 fc ff ff ff       	call   15b1 <dm_resume+0xac>
			15b1: R_386_PC32	dm_table_unplug_all
    15b5:	eb 05                	jmp    15bc <dm_resume+0xb7>
    15b7:	bf ea ff ff ff       	mov    $0xffffffea,%edi
    15bc:	89 f0                	mov    %esi,%eax
    15be:	e8 fc ff ff ff       	call   15bf <dm_resume+0xba>
			15bf: R_386_PC32	dm_table_put
    15c3:	89 e8                	mov    %ebp,%eax
    15c5:	e8 fc ff ff ff       	call   15c6 <dm_resume+0xc1>
			15c6: R_386_PC32	mutex_unlock
    15ca:	89 f8                	mov    %edi,%eax
    15cc:	5f                   	pop    %edi
    15cd:	5d                   	pop    %ebp
    15ce:	5b                   	pop    %ebx
    15cf:	5e                   	pop    %esi
    15d0:	5f                   	pop    %edi
    15d1:	5d                   	pop    %ebp
    15d2:	c3                   	ret    

000015d3 <dm_unplug_all>:
    15d3:	57                   	push   %edi
    15d4:	56                   	push   %esi
    15d5:	89 c6                	mov    %eax,%esi
    15d7:	53                   	push   %ebx
    15d8:	8b b8 a8 01 00 00    	mov    0x1a8(%eax),%edi
    15de:	89 f8                	mov    %edi,%eax
    15e0:	e8 fc ff ff ff       	call   15e1 <dm_unplug_all+0xe>
			15e1: R_386_PC32	dm_get_table
    15e5:	85 c0                	test   %eax,%eax
    15e7:	89 c3                	mov    %eax,%ebx
    15e9:	74 24                	je     160f <dm_unplug_all+0x3c>
    15eb:	8b 47 34             	mov    0x34(%edi),%eax
    15ee:	f6 80 b1 01 00 00 20 	testb  $0x20,0x1b1(%eax)
    15f5:	74 07                	je     15fe <dm_unplug_all+0x2b>
    15f7:	89 f0                	mov    %esi,%eax
    15f9:	e8 fc ff ff ff       	call   15fa <dm_unplug_all+0x27>
			15fa: R_386_PC32	generic_unplug_device
    15fe:	89 d8                	mov    %ebx,%eax
    1600:	e8 fc ff ff ff       	call   1601 <dm_unplug_all+0x2e>
			1601: R_386_PC32	dm_table_unplug_all
    1605:	89 d8                	mov    %ebx,%eax
    1607:	5b                   	pop    %ebx
    1608:	5e                   	pop    %esi
    1609:	5f                   	pop    %edi
    160a:	e9 fc ff ff ff       	jmp    160b <dm_unplug_all+0x38>
			160b: R_386_PC32	dm_table_put
    160f:	5b                   	pop    %ebx
    1610:	5e                   	pop    %esi
    1611:	5f                   	pop    %edi
    1612:	c3                   	ret    

00001613 <dm_wait_for_completion>:
    1613:	55                   	push   %ebp
    1614:	b9 05 00 00 00       	mov    $0x5,%ecx
    1619:	57                   	push   %edi
    161a:	56                   	push   %esi
    161b:	53                   	push   %ebx
    161c:	89 c3                	mov    %eax,%ebx
    161e:	83 ec 1c             	sub    $0x1c,%esp
    1621:	31 c0                	xor    %eax,%eax
    1623:	8d 7c 24 08          	lea    0x8(%esp),%edi
    1627:	f3 ab                	rep stos %eax,%es:(%edi)
    1629:	89 54 24 04          	mov    %edx,0x4(%esp)
    162d:	64 8b 2d 00 00 00 00 	mov    %fs:0x0,%ebp
			1630: R_386_32	per_cpu__current_task
    1634:	c7 44 24 10 00 00 00 	movl   $0x0,0x10(%esp)
    163b:	00 
			1638: R_386_32	default_wake_function
    163c:	89 ee                	mov    %ebp,%esi
    163e:	89 6c 24 0c          	mov    %ebp,0xc(%esp)
    1642:	8b 7b 34             	mov    0x34(%ebx),%edi
    1645:	89 f8                	mov    %edi,%eax
    1647:	e8 87 ff ff ff       	call   15d3 <dm_unplug_all>
    164c:	8d 43 58             	lea    0x58(%ebx),%eax
    164f:	8d 54 24 08          	lea    0x8(%esp),%edx
    1653:	89 04 24             	mov    %eax,(%esp)
    1656:	e8 fc ff ff ff       	call   1657 <dm_wait_for_completion+0x44>
			1657: R_386_PC32	add_wait_queue
    165b:	8b 44 24 04          	mov    0x4(%esp),%eax
    165f:	87 45 00             	xchg   %eax,0x0(%ebp)
    1662:	f0 83 04 24 00       	lock addl $0x0,(%esp)
    1667:	8b 43 34             	mov    0x34(%ebx),%eax
    166a:	f6 80 b1 01 00 00 20 	testb  $0x20,0x1b1(%eax)
    1671:	74 40                	je     16b3 <dm_wait_for_completion+0xa0>
    1673:	8b 87 b8 01 00 00    	mov    0x1b8(%edi),%eax
    1679:	e8 fc ff ff ff       	call   167a <dm_wait_for_completion+0x67>
			167a: R_386_PC32	_spin_lock_irqsave
    167e:	89 c2                	mov    %eax,%edx
    1680:	8b 87 14 02 00 00    	mov    0x214(%edi),%eax
    1686:	03 87 10 02 00 00    	add    0x210(%edi),%eax
    168c:	85 c0                	test   %eax,%eax
    168e:	75 16                	jne    16a6 <dm_wait_for_completion+0x93>
    1690:	f6 87 b0 01 00 00 04 	testb  $0x4,0x1b0(%edi)
    1697:	74 0d                	je     16a6 <dm_wait_for_completion+0x93>
    1699:	8b 87 b8 01 00 00    	mov    0x1b8(%edi),%eax
    169f:	e8 fc ff ff ff       	call   16a0 <dm_wait_for_completion+0x8d>
			16a0: R_386_PC32	_spin_unlock_irqrestore
    16a4:	eb 3c                	jmp    16e2 <dm_wait_for_completion+0xcf>
    16a6:	8b 87 b8 01 00 00    	mov    0x1b8(%edi),%eax
    16ac:	e8 fc ff ff ff       	call   16ad <dm_wait_for_completion+0x9a>
			16ad: R_386_PC32	_spin_unlock_irqrestore
    16b1:	eb 0e                	jmp    16c1 <dm_wait_for_completion+0xae>
    16b3:	8b 43 50             	mov    0x50(%ebx),%eax
    16b6:	85 c0                	test   %eax,%eax
    16b8:	75 07                	jne    16c1 <dm_wait_for_completion+0xae>
    16ba:	8b 43 54             	mov    0x54(%ebx),%eax
    16bd:	85 c0                	test   %eax,%eax
    16bf:	74 21                	je     16e2 <dm_wait_for_completion+0xcf>
    16c1:	83 7c 24 04 01       	cmpl   $0x1,0x4(%esp)
    16c6:	75 10                	jne    16d8 <dm_wait_for_completion+0xc5>
    16c8:	8b 46 04             	mov    0x4(%esi),%eax
    16cb:	f6 40 08 04          	testb  $0x4,0x8(%eax)
    16cf:	74 07                	je     16d8 <dm_wait_for_completion+0xc5>
    16d1:	bb fc ff ff ff       	mov    $0xfffffffc,%ebx
    16d6:	eb 0c                	jmp    16e4 <dm_wait_for_completion+0xd1>
    16d8:	e8 fc ff ff ff       	call   16d9 <dm_wait_for_completion+0xc6>
			16d9: R_386_PC32	io_schedule
    16dd:	e9 79 ff ff ff       	jmp    165b <dm_wait_for_completion+0x48>
    16e2:	31 db                	xor    %ebx,%ebx
    16e4:	64 8b 15 00 00 00 00 	mov    %fs:0x0,%edx
			16e7: R_386_32	per_cpu__current_task
    16eb:	31 c0                	xor    %eax,%eax
    16ed:	87 02                	xchg   %eax,(%edx)
    16ef:	8b 04 24             	mov    (%esp),%eax
    16f2:	8d 54 24 08          	lea    0x8(%esp),%edx
    16f6:	e8 fc ff ff ff       	call   16f7 <dm_wait_for_completion+0xe4>
			16f7: R_386_PC32	remove_wait_queue
    16fb:	89 d8                	mov    %ebx,%eax
    16fd:	83 c4 1c             	add    $0x1c,%esp
    1700:	5b                   	pop    %ebx
    1701:	5e                   	pop    %esi
    1702:	5f                   	pop    %edi
    1703:	5d                   	pop    %ebp
    1704:	c3                   	ret    

00001705 <dm_suspend>:
    1705:	55                   	push   %ebp
    1706:	57                   	push   %edi
    1707:	bf ea ff ff ff       	mov    $0xffffffea,%edi
    170c:	56                   	push   %esi
    170d:	53                   	push   %ebx
    170e:	89 c3                	mov    %eax,%ebx
    1710:	83 ec 14             	sub    $0x14,%esp
    1713:	8d 40 10             	lea    0x10(%eax),%eax
    1716:	89 54 24 10          	mov    %edx,0x10(%esp)
    171a:	89 44 24 0c          	mov    %eax,0xc(%esp)
    171e:	e8 fc ff ff ff       	call   171f <dm_suspend+0x1a>
			171f: R_386_PC32	mutex_lock
    1723:	f6 43 30 02          	testb  $0x2,0x30(%ebx)
    1727:	0f 85 e6 01 00 00    	jne    1913 <dm_suspend+0x20e>
    172d:	8b 74 24 10          	mov    0x10(%esp),%esi
    1731:	8b 7b 34             	mov    0x34(%ebx),%edi
    1734:	d1 ee                	shr    %esi
    1736:	83 e6 01             	and    $0x1,%esi
    1739:	f6 87 b1 01 00 00 20 	testb  $0x20,0x1b1(%edi)
    1740:	74 58                	je     179a <dm_suspend+0x95>
    1742:	85 f6                	test   %esi,%esi
    1744:	75 54                	jne    179a <dm_suspend+0x95>
    1746:	8b 87 b8 01 00 00    	mov    0x1b8(%edi),%eax
    174c:	bd 01 00 00 00       	mov    $0x1,%ebp
    1751:	e8 fc ff ff ff       	call   1752 <dm_suspend+0x4d>
			1752: R_386_PC32	_spin_lock_irqsave
    1756:	83 bb 44 01 00 00 00 	cmpl   $0x0,0x144(%ebx)
    175d:	89 c2                	mov    %eax,%edx
    175f:	74 21                	je     1782 <dm_suspend+0x7d>
    1761:	83 bb 34 01 00 00 00 	cmpl   $0x0,0x134(%ebx)
    1768:	75 04                	jne    176e <dm_suspend+0x69>
    176a:	0f 0b                	ud2a   
    176c:	eb fe                	jmp    176c <dm_suspend+0x67>
    176e:	68 18 06 00 00       	push   $0x618
			176f: R_386_32	.rodata.str1.1
    1773:	31 ed                	xor    %ebp,%ebp
    1775:	89 44 24 04          	mov    %eax,0x4(%esp)
    1779:	e8 fc ff ff ff       	call   177a <dm_suspend+0x75>
			177a: R_386_PC32	printk
    177e:	5a                   	pop    %edx
    177f:	8b 14 24             	mov    (%esp),%edx
    1782:	8b 87 b8 01 00 00    	mov    0x1b8(%edi),%eax
    1788:	bf f0 ff ff ff       	mov    $0xfffffff0,%edi
    178d:	e8 fc ff ff ff       	call   178e <dm_suspend+0x89>
			178e: R_386_PC32	_spin_unlock_irqrestore
    1792:	85 ed                	test   %ebp,%ebp
    1794:	0f 84 79 01 00 00    	je     1913 <dm_suspend+0x20e>
    179a:	89 d8                	mov    %ebx,%eax
    179c:	e8 fc ff ff ff       	call   179d <dm_suspend+0x98>
			179d: R_386_PC32	dm_get_table
    17a1:	85 f6                	test   %esi,%esi
    17a3:	89 44 24 04          	mov    %eax,0x4(%esp)
    17a7:	74 05                	je     17ae <dm_suspend+0xa9>
    17a9:	f0 80 4b 30 20       	lock orb $0x20,0x30(%ebx)
    17ae:	8b 44 24 04          	mov    0x4(%esp),%eax
    17b2:	e8 fc ff ff ff       	call   17b3 <dm_suspend+0xae>
			17b3: R_386_PC32	dm_table_presuspend_targets
    17b7:	85 f6                	test   %esi,%esi
    17b9:	0f 94 44 24 0b       	sete   0xb(%esp)
    17be:	f6 44 24 10 01       	testb  $0x1,0x10(%esp)
    17c3:	74 52                	je     1817 <dm_suspend+0x112>
    17c5:	80 7c 24 0b 00       	cmpb   $0x0,0xb(%esp)
    17ca:	74 4b                	je     1817 <dm_suspend+0x112>
    17cc:	83 bb b8 00 00 00 00 	cmpl   $0x0,0xb8(%ebx)
    17d3:	74 0f                	je     17e4 <dm_suspend+0xdf>
    17d5:	ba fb 08 00 00       	mov    $0x8fb,%edx
    17da:	b8 7c 04 00 00       	mov    $0x47c,%eax
			17db: R_386_32	.rodata.str1.1
    17df:	e8 fc ff ff ff       	call   17e0 <dm_suspend+0xdb>
			17e0: R_386_PC32	warn_slowpath_null
    17e4:	8b 83 bc 00 00 00    	mov    0xbc(%ebx),%eax
    17ea:	e8 fc ff ff ff       	call   17eb <dm_suspend+0xe6>
			17eb: R_386_PC32	freeze_bdev
    17ef:	3d 00 f0 ff ff       	cmp    $0xfffff000,%eax
    17f4:	89 83 b8 00 00 00    	mov    %eax,0xb8(%ebx)
    17fa:	76 16                	jbe    1812 <dm_suspend+0x10d>
    17fc:	85 c0                	test   %eax,%eax
    17fe:	89 c7                	mov    %eax,%edi
    1800:	c7 83 b8 00 00 00 00 	movl   $0x0,0xb8(%ebx)
    1807:	00 00 00 
    180a:	0f 85 fa 00 00 00    	jne    190a <dm_suspend+0x205>
    1810:	eb 05                	jmp    1817 <dm_suspend+0x112>
    1812:	f0 80 4b 30 04       	lock orb $0x4,0x30(%ebx)
    1817:	89 d8                	mov    %ebx,%eax
    1819:	e8 fc ff ff ff       	call   181a <dm_suspend+0x115>
			181a: R_386_PC32	down_write
    181e:	f0 80 4b 30 01       	lock orb $0x1,0x30(%ebx)
    1823:	f0 80 4b 30 40       	lock orb $0x40,0x30(%ebx)
    1828:	89 d8                	mov    %ebx,%eax
    182a:	e8 fc ff ff ff       	call   182b <dm_suspend+0x126>
			182b: R_386_PC32	up_write
    182f:	8b 83 84 00 00 00    	mov    0x84(%ebx),%eax
    1835:	e8 fc ff ff ff       	call   1836 <dm_suspend+0x131>
			1836: R_386_PC32	flush_workqueue
    183a:	8b 7b 34             	mov    0x34(%ebx),%edi
    183d:	f6 87 b1 01 00 00 20 	testb  $0x20,0x1b1(%edi)
    1844:	74 2a                	je     1870 <dm_suspend+0x16b>
    1846:	85 f6                	test   %esi,%esi
    1848:	74 09                	je     1853 <dm_suspend+0x14e>
    184a:	89 f8                	mov    %edi,%eax
    184c:	e8 b9 ed ff ff       	call   60a <stop_queue>
    1851:	eb 1d                	jmp    1870 <dm_suspend+0x16b>
    1853:	8d ab c8 00 00 00    	lea    0xc8(%ebx),%ebp
    1859:	89 f8                	mov    %edi,%eax
    185b:	89 ea                	mov    %ebp,%edx
    185d:	e8 fc ff ff ff       	call   185e <dm_suspend+0x159>
			185e: R_386_PC32	blk_rq_init
    1862:	89 f8                	mov    %edi,%eax
    1864:	31 c9                	xor    %ecx,%ecx
    1866:	89 ea                	mov    %ebp,%edx
    1868:	6a 00                	push   $0x0
    186a:	e8 fc ff ff ff       	call   186b <dm_suspend+0x166>
			186b: R_386_PC32	blk_insert_request
    186f:	58                   	pop    %eax
    1870:	ba 01 00 00 00       	mov    $0x1,%edx
    1875:	89 d8                	mov    %ebx,%eax
    1877:	e8 97 fd ff ff       	call   1613 <dm_wait_for_completion>
    187c:	89 c7                	mov    %eax,%edi
    187e:	89 d8                	mov    %ebx,%eax
    1880:	e8 fc ff ff ff       	call   1881 <dm_suspend+0x17c>
			1881: R_386_PC32	down_write
    1885:	85 f6                	test   %esi,%esi
    1887:	74 05                	je     188e <dm_suspend+0x189>
    1889:	f0 80 63 30 df       	lock andb $0xdf,0x30(%ebx)
    188e:	89 d8                	mov    %ebx,%eax
    1890:	e8 fc ff ff ff       	call   1891 <dm_suspend+0x18c>
			1891: R_386_PC32	up_write
    1895:	85 ff                	test   %edi,%edi
    1897:	79 63                	jns    18fc <dm_suspend+0x1f7>
    1899:	f0 80 63 30 fe       	lock andb $0xfe,0x30(%ebx)
    189e:	8b 83 84 00 00 00    	mov    0x84(%ebx),%eax
    18a4:	8d 53 64             	lea    0x64(%ebx),%edx
    18a7:	e8 fc ff ff ff       	call   18a8 <dm_suspend+0x1a3>
			18a8: R_386_PC32	queue_work
    18ac:	8b 73 34             	mov    0x34(%ebx),%esi
    18af:	f6 86 b1 01 00 00 20 	testb  $0x20,0x1b1(%esi)
    18b6:	74 3b                	je     18f3 <dm_suspend+0x1ee>
    18b8:	8b 86 b8 01 00 00    	mov    0x1b8(%esi),%eax
    18be:	e8 fc ff ff ff       	call   18bf <dm_suspend+0x1ba>
			18bf: R_386_PC32	_spin_lock_irqsave
    18c3:	80 7c 24 0b 00       	cmpb   $0x0,0xb(%esp)
    18c8:	89 c5                	mov    %eax,%ebp
    18ca:	74 0a                	je     18d6 <dm_suspend+0x1d1>
    18cc:	c7 83 34 01 00 00 01 	movl   $0x1,0x134(%ebx)
    18d3:	00 00 00 
    18d6:	f6 86 b0 01 00 00 04 	testb  $0x4,0x1b0(%esi)
    18dd:	74 07                	je     18e6 <dm_suspend+0x1e1>
    18df:	89 f0                	mov    %esi,%eax
    18e1:	e8 fc ff ff ff       	call   18e2 <dm_suspend+0x1dd>
			18e2: R_386_PC32	blk_start_queue
    18e6:	8b 86 b8 01 00 00    	mov    0x1b8(%esi),%eax
    18ec:	89 ea                	mov    %ebp,%edx
    18ee:	e8 fc ff ff ff       	call   18ef <dm_suspend+0x1ea>
			18ef: R_386_PC32	_spin_unlock_irqrestore
    18f3:	89 d8                	mov    %ebx,%eax
    18f5:	e8 e5 ec ff ff       	call   5df <unlock_fs>
    18fa:	eb 0e                	jmp    190a <dm_suspend+0x205>
    18fc:	8b 44 24 04          	mov    0x4(%esp),%eax
    1900:	e8 fc ff ff ff       	call   1901 <dm_suspend+0x1fc>
			1901: R_386_PC32	dm_table_postsuspend_targets
    1905:	f0 80 4b 30 02       	lock orb $0x2,0x30(%ebx)
    190a:	8b 44 24 04          	mov    0x4(%esp),%eax
    190e:	e8 fc ff ff ff       	call   190f <dm_suspend+0x20a>
			190f: R_386_PC32	dm_table_put
    1913:	8b 44 24 0c          	mov    0xc(%esp),%eax
    1917:	e8 fc ff ff ff       	call   1918 <dm_suspend+0x213>
			1918: R_386_PC32	mutex_unlock
    191c:	89 f8                	mov    %edi,%eax
    191e:	83 c4 14             	add    $0x14,%esp
    1921:	5b                   	pop    %ebx
    1922:	5e                   	pop    %esi
    1923:	5f                   	pop    %edi
    1924:	5d                   	pop    %ebp
    1925:	c3                   	ret    

00001926 <dm_put>:
    1926:	56                   	push   %esi
    1927:	53                   	push   %ebx
    1928:	89 c3                	mov    %eax,%ebx
    192a:	f6 40 30 08          	testb  $0x8,0x30(%eax)
    192e:	74 04                	je     1934 <dm_put+0xe>
    1930:	0f 0b                	ud2a   
    1932:	eb fe                	jmp    1932 <dm_put+0xc>
    1934:	8d 40 28             	lea    0x28(%eax),%eax
    1937:	ba 0c 00 00 00       	mov    $0xc,%edx
			1938: R_386_32	.bss
    193c:	e8 fc ff ff ff       	call   193d <dm_put+0x17>
			193d: R_386_PC32	_atomic_dec_and_lock
    1941:	85 c0                	test   %eax,%eax
    1943:	0f 84 08 01 00 00    	je     1a51 <dm_put+0x12b>
    1949:	89 d8                	mov    %ebx,%eax
    194b:	e8 fc ff ff ff       	call   194c <dm_put+0x26>
			194c: R_386_PC32	dm_get_table
    1950:	83 ca ff             	or     $0xffffffff,%edx
    1953:	89 c6                	mov    %eax,%esi
    1955:	8b 43 38             	mov    0x38(%ebx),%eax
    1958:	8b 88 40 01 00 00    	mov    0x140(%eax),%ecx
    195e:	b8 10 00 00 00       	mov    $0x10,%eax
			195f: R_386_32	.bss
    1963:	81 e1 ff ff 0f 00    	and    $0xfffff,%ecx
    1969:	e8 fc ff ff ff       	call   196a <dm_put+0x44>
			196a: R_386_PC32	idr_replace
    196e:	f0 80 4b 30 08       	lock orb $0x8,0x30(%ebx)
    1973:	fe 05 0c 00 00 00    	incb   0xc
			1975: R_386_32	.bss
    1979:	f6 43 30 02          	testb  $0x2,0x30(%ebx)
    197d:	75 0e                	jne    198d <dm_put+0x67>
    197f:	89 f0                	mov    %esi,%eax
    1981:	e8 fc ff ff ff       	call   1982 <dm_put+0x5c>
			1982: R_386_PC32	dm_table_presuspend_targets
    1986:	89 f0                	mov    %esi,%eax
    1988:	e8 fc ff ff ff       	call   1989 <dm_put+0x63>
			1989: R_386_PC32	dm_table_postsuspend_targets
    198d:	89 d8                	mov    %ebx,%eax
    198f:	e8 fc ff ff ff       	call   1990 <dm_put+0x6a>
			1990: R_386_PC32	dm_sysfs_exit
    1994:	89 f0                	mov    %esi,%eax
    1996:	e8 fc ff ff ff       	call   1997 <dm_put+0x71>
			1997: R_386_PC32	dm_table_put
    199b:	89 d8                	mov    %ebx,%eax
    199d:	e8 8f ec ff ff       	call   631 <__unbind>
    19a2:	8b 43 38             	mov    0x38(%ebx),%eax
    19a5:	8b b0 40 01 00 00    	mov    0x140(%eax),%esi
    19ab:	89 d8                	mov    %ebx,%eax
    19ad:	e8 2d ec ff ff       	call   5df <unlock_fs>
    19b2:	8b 83 bc 00 00 00    	mov    0xbc(%ebx),%eax
    19b8:	e8 fc ff ff ff       	call   19b9 <dm_put+0x93>
			19b9: R_386_PC32	bdput
    19bd:	8b 83 84 00 00 00    	mov    0x84(%ebx),%eax
    19c3:	e8 fc ff ff ff       	call   19c4 <dm_put+0x9e>
			19c4: R_386_PC32	destroy_workqueue
    19c8:	8b 83 90 00 00 00    	mov    0x90(%ebx),%eax
    19ce:	85 c0                	test   %eax,%eax
    19d0:	74 05                	je     19d7 <dm_put+0xb1>
    19d2:	e8 fc ff ff ff       	call   19d3 <dm_put+0xad>
			19d3: R_386_PC32	mempool_destroy
    19d7:	8b 83 8c 00 00 00    	mov    0x8c(%ebx),%eax
    19dd:	85 c0                	test   %eax,%eax
    19df:	74 05                	je     19e6 <dm_put+0xc0>
    19e1:	e8 fc ff ff ff       	call   19e2 <dm_put+0xbc>
			19e2: R_386_PC32	mempool_destroy
    19e6:	8b 83 94 00 00 00    	mov    0x94(%ebx),%eax
    19ec:	85 c0                	test   %eax,%eax
    19ee:	74 05                	je     19f5 <dm_put+0xcf>
    19f0:	e8 fc ff ff ff       	call   19f1 <dm_put+0xcb>
			19f1: R_386_PC32	bioset_free
    19f5:	8b 43 38             	mov    0x38(%ebx),%eax
    19f8:	e8 fc ff ff ff       	call   19f9 <dm_put+0xd3>
			19f9: R_386_PC32	blk_integrity_unregister
    19fd:	8b 43 38             	mov    0x38(%ebx),%eax
    1a00:	e8 fc ff ff ff       	call   1a01 <dm_put+0xdb>
			1a01: R_386_PC32	del_gendisk
    1a05:	89 f0                	mov    %esi,%eax
    1a07:	25 ff ff 0f 00       	and    $0xfffff,%eax
    1a0c:	e8 65 ef ff ff       	call   976 <free_minor>
    1a11:	b8 0c 00 00 00       	mov    $0xc,%eax
			1a12: R_386_32	.bss
    1a16:	e8 fc ff ff ff       	call   1a17 <dm_put+0xf1>
			1a17: R_386_PC32	_spin_lock
    1a1b:	8b 43 38             	mov    0x38(%ebx),%eax
    1a1e:	c7 80 98 01 00 00 00 	movl   $0x0,0x198(%eax)
    1a25:	00 00 00 
    1a28:	fe 05 0c 00 00 00    	incb   0xc
			1a2a: R_386_32	.bss
    1a2e:	8b 43 38             	mov    0x38(%ebx),%eax
    1a31:	e8 fc ff ff ff       	call   1a32 <dm_put+0x10c>
			1a32: R_386_PC32	put_disk
    1a36:	8b 43 34             	mov    0x34(%ebx),%eax
    1a39:	e8 fc ff ff ff       	call   1a3a <dm_put+0x114>
			1a3a: R_386_PC32	blk_cleanup_queue
    1a3e:	b8 00 00 00 00       	mov    $0x0,%eax
			1a3f: R_386_32	__this_module
    1a43:	e8 fc ff ff ff       	call   1a44 <dm_put+0x11e>
			1a44: R_386_PC32	module_put
    1a48:	89 d8                	mov    %ebx,%eax
    1a4a:	5b                   	pop    %ebx
    1a4b:	5e                   	pop    %esi
    1a4c:	e9 fc ff ff ff       	jmp    1a4d <dm_put+0x127>
			1a4d: R_386_PC32	kfree
    1a51:	5b                   	pop    %ebx
    1a52:	5e                   	pop    %esi
    1a53:	c3                   	ret    

00001a54 <dm_noflush_suspending>:
    1a54:	53                   	push   %ebx
    1a55:	8b 00                	mov    (%eax),%eax
    1a57:	e8 fc ff ff ff       	call   1a58 <dm_noflush_suspending+0x4>
			1a58: R_386_PC32	dm_table_get_md
    1a5c:	8b 58 30             	mov    0x30(%eax),%ebx
    1a5f:	e8 fc ff ff ff       	call   1a60 <dm_noflush_suspending+0xc>
			1a60: R_386_PC32	dm_put
    1a64:	c1 eb 05             	shr    $0x5,%ebx
    1a67:	83 e3 01             	and    $0x1,%ebx
    1a6a:	89 d8                	mov    %ebx,%eax
    1a6c:	5b                   	pop    %ebx
    1a6d:	c3                   	ret    

00001a6e <dm_blk_close>:
    1a6e:	8b 80 98 01 00 00    	mov    0x198(%eax),%eax
    1a74:	f0 ff 48 2c          	lock decl 0x2c(%eax)
    1a78:	e8 fc ff ff ff       	call   1a79 <dm_blk_close+0xb>
			1a79: R_386_PC32	dm_put
    1a7d:	31 c0                	xor    %eax,%eax
    1a7f:	c3                   	ret    

00001a80 <rq_completed>:
    1a80:	55                   	push   %ebp
    1a81:	89 d5                	mov    %edx,%ebp
    1a83:	57                   	push   %edi
    1a84:	56                   	push   %esi
    1a85:	89 c6                	mov    %eax,%esi
    1a87:	53                   	push   %ebx
    1a88:	8b 58 34             	mov    0x34(%eax),%ebx
    1a8b:	8b 83 b8 01 00 00    	mov    0x1b8(%ebx),%eax
    1a91:	e8 fc ff ff ff       	call   1a92 <rq_completed+0x12>
			1a92: R_386_PC32	_spin_lock_irqsave
    1a96:	8b bb 14 02 00 00    	mov    0x214(%ebx),%edi
    1a9c:	03 bb 10 02 00 00    	add    0x210(%ebx),%edi
    1aa2:	89 c2                	mov    %eax,%edx
    1aa4:	8b 83 b8 01 00 00    	mov    0x1b8(%ebx),%eax
    1aaa:	e8 fc ff ff ff       	call   1aab <rq_completed+0x2b>
			1aab: R_386_PC32	_spin_unlock_irqrestore
    1aaf:	85 ff                	test   %edi,%edi
    1ab1:	75 15                	jne    1ac8 <rq_completed+0x48>
    1ab3:	b9 01 00 00 00       	mov    $0x1,%ecx
    1ab8:	ba 03 00 00 00       	mov    $0x3,%edx
    1abd:	8d 46 58             	lea    0x58(%esi),%eax
    1ac0:	6a 00                	push   $0x0
    1ac2:	e8 fc ff ff ff       	call   1ac3 <rq_completed+0x43>
			1ac3: R_386_PC32	__wake_up
    1ac7:	59                   	pop    %ecx
    1ac8:	85 ed                	test   %ebp,%ebp
    1aca:	74 07                	je     1ad3 <rq_completed+0x53>
    1acc:	89 d8                	mov    %ebx,%eax
    1ace:	e8 fc ff ff ff       	call   1acf <rq_completed+0x4f>
			1acf: R_386_PC32	blk_run_queue
    1ad3:	89 f0                	mov    %esi,%eax
    1ad5:	5b                   	pop    %ebx
    1ad6:	5e                   	pop    %esi
    1ad7:	5f                   	pop    %edi
    1ad8:	5d                   	pop    %ebp
    1ad9:	e9 fc ff ff ff       	jmp    1ada <rq_completed+0x5a>
			1ada: R_386_PC32	dm_put

00001ade <dm_requeue_unmapped_request>:
    1ade:	55                   	push   %ebp
    1adf:	57                   	push   %edi
    1ae0:	56                   	push   %esi
    1ae1:	53                   	push   %ebx
    1ae2:	8b 80 c0 00 00 00    	mov    0xc0(%eax),%eax
    1ae8:	8b 68 08             	mov    0x8(%eax),%ebp
    1aeb:	8b 30                	mov    (%eax),%esi
    1aed:	8b 45 6c             	mov    0x6c(%ebp),%eax
    1af0:	81 65 24 ff f7 ff ff 	andl   $0xfffff7ff,0x24(%ebp)
    1af7:	8b 5d 20             	mov    0x20(%ebp),%ebx
    1afa:	c7 45 6c 00 00 00 00 	movl   $0x0,0x6c(%ebp)
    1b01:	e8 64 f9 ff ff       	call   146a <free_rq_clone>
    1b06:	8b 83 b8 01 00 00    	mov    0x1b8(%ebx),%eax
    1b0c:	e8 fc ff ff ff       	call   1b0d <dm_requeue_unmapped_request+0x2f>
			1b0d: R_386_PC32	_spin_lock_irqsave
    1b11:	89 c7                	mov    %eax,%edi
    1b13:	89 d8                	mov    %ebx,%eax
    1b15:	e8 fc ff ff ff       	call   1b16 <dm_requeue_unmapped_request+0x38>
			1b16: R_386_PC32	elv_queue_empty
    1b1a:	85 c0                	test   %eax,%eax
    1b1c:	74 07                	je     1b25 <dm_requeue_unmapped_request+0x47>
    1b1e:	89 d8                	mov    %ebx,%eax
    1b20:	e8 fc ff ff ff       	call   1b21 <dm_requeue_unmapped_request+0x43>
			1b21: R_386_PC32	blk_plug_device
    1b25:	89 ea                	mov    %ebp,%edx
    1b27:	89 d8                	mov    %ebx,%eax
    1b29:	e8 fc ff ff ff       	call   1b2a <dm_requeue_unmapped_request+0x4c>
			1b2a: R_386_PC32	blk_requeue_request
    1b2e:	8b 83 b8 01 00 00    	mov    0x1b8(%ebx),%eax
    1b34:	89 fa                	mov    %edi,%edx
    1b36:	e8 fc ff ff ff       	call   1b37 <dm_requeue_unmapped_request+0x59>
			1b37: R_386_PC32	_spin_unlock_irqrestore
    1b3b:	89 f0                	mov    %esi,%eax
    1b3d:	31 d2                	xor    %edx,%edx
    1b3f:	5b                   	pop    %ebx
    1b40:	5e                   	pop    %esi
    1b41:	5f                   	pop    %edi
    1b42:	5d                   	pop    %ebp
    1b43:	e9 38 ff ff ff       	jmp    1a80 <rq_completed>

00001b48 <dm_softirq_done>:
    1b48:	55                   	push   %ebp
    1b49:	57                   	push   %edi
    1b4a:	56                   	push   %esi
    1b4b:	53                   	push   %ebx
    1b4c:	8b 58 4c             	mov    0x4c(%eax),%ebx
    1b4f:	f6 40 25 40          	testb  $0x40,0x25(%eax)
    1b53:	8b 93 c0 00 00 00    	mov    0xc0(%ebx),%edx
    1b59:	8b 7a 04             	mov    0x4(%edx),%edi
    1b5c:	8b aa d4 00 00 00    	mov    0xd4(%edx),%ebp
    1b62:	8b 4f 04             	mov    0x4(%edi),%ecx
    1b65:	8b 71 30             	mov    0x30(%ecx),%esi
    1b68:	75 16                	jne    1b80 <dm_softirq_done+0x38>
    1b6a:	85 f6                	test   %esi,%esi
    1b6c:	74 12                	je     1b80 <dm_softirq_done+0x38>
    1b6e:	81 c2 d8 00 00 00    	add    $0xd8,%edx
    1b74:	89 e9                	mov    %ebp,%ecx
    1b76:	52                   	push   %edx
    1b77:	89 f8                	mov    %edi,%eax
    1b79:	89 da                	mov    %ebx,%edx
    1b7b:	ff d6                	call   *%esi
    1b7d:	5f                   	pop    %edi
    1b7e:	89 c5                	mov    %eax,%ebp
    1b80:	85 ed                	test   %ebp,%ebp
    1b82:	7f 58                	jg     1bdc <dm_softirq_done+0x94>
    1b84:	8b 83 c0 00 00 00    	mov    0xc0(%ebx),%eax
    1b8a:	8b 70 08             	mov    0x8(%eax),%esi
    1b8d:	8b 38                	mov    (%eax),%edi
    1b8f:	83 7e 28 02          	cmpl   $0x2,0x28(%esi)
    1b93:	75 27                	jne    1bbc <dm_softirq_done+0x74>
    1b95:	8b 43 78             	mov    0x78(%ebx),%eax
    1b98:	83 be a4 00 00 00 00 	cmpl   $0x0,0xa4(%esi)
    1b9f:	89 46 78             	mov    %eax,0x78(%esi)
    1ba2:	8b 83 a0 00 00 00    	mov    0xa0(%ebx),%eax
    1ba8:	89 86 a0 00 00 00    	mov    %eax,0xa0(%esi)
    1bae:	74 0c                	je     1bbc <dm_softirq_done+0x74>
    1bb0:	8b 83 9c 00 00 00    	mov    0x9c(%ebx),%eax
    1bb6:	89 86 9c 00 00 00    	mov    %eax,0x9c(%esi)
    1bbc:	89 d8                	mov    %ebx,%eax
    1bbe:	e8 a7 f8 ff ff       	call   146a <free_rq_clone>
    1bc3:	89 ea                	mov    %ebp,%edx
    1bc5:	89 f0                	mov    %esi,%eax
    1bc7:	e8 fc ff ff ff       	call   1bc8 <dm_softirq_done+0x80>
			1bc8: R_386_PC32	blk_end_request_all
    1bcc:	89 f8                	mov    %edi,%eax
    1bce:	ba 01 00 00 00       	mov    $0x1,%edx
    1bd3:	5b                   	pop    %ebx
    1bd4:	5e                   	pop    %esi
    1bd5:	5f                   	pop    %edi
    1bd6:	5d                   	pop    %ebp
    1bd7:	e9 a4 fe ff ff       	jmp    1a80 <rq_completed>
    1bdc:	83 fd 01             	cmp    $0x1,%ebp
    1bdf:	74 21                	je     1c02 <dm_softirq_done+0xba>
    1be1:	83 fd 02             	cmp    $0x2,%ebp
    1be4:	75 0b                	jne    1bf1 <dm_softirq_done+0xa9>
    1be6:	89 d8                	mov    %ebx,%eax
    1be8:	5b                   	pop    %ebx
    1be9:	5e                   	pop    %esi
    1bea:	5f                   	pop    %edi
    1beb:	5d                   	pop    %ebp
    1bec:	e9 fc ff ff ff       	jmp    1bed <dm_softirq_done+0xa5>
			1bed: R_386_PC32	dm_requeue_unmapped_request
    1bf1:	55                   	push   %ebp
    1bf2:	68 46 05 00 00       	push   $0x546
			1bf3: R_386_32	.rodata.str1.1
    1bf7:	e8 fc ff ff ff       	call   1bf8 <dm_softirq_done+0xb0>
			1bf8: R_386_PC32	printk
    1bfc:	0f 0b                	ud2a   
    1bfe:	5b                   	pop    %ebx
    1bff:	5e                   	pop    %esi
    1c00:	eb fe                	jmp    1c00 <dm_softirq_done+0xb8>
    1c02:	5b                   	pop    %ebx
    1c03:	5e                   	pop    %esi
    1c04:	5f                   	pop    %edi
    1c05:	5d                   	pop    %ebp
    1c06:	c3                   	ret    

00001c07 <dm_blk_ioctl>:
    1c07:	55                   	push   %ebp
    1c08:	57                   	push   %edi
    1c09:	89 cf                	mov    %ecx,%edi
    1c0b:	56                   	push   %esi
    1c0c:	53                   	push   %ebx
    1c0d:	8b 40 50             	mov    0x50(%eax),%eax
    1c10:	8b b0 98 01 00 00    	mov    0x198(%eax),%esi
    1c16:	89 f0                	mov    %esi,%eax
    1c18:	e8 fc ff ff ff       	call   1c19 <dm_blk_ioctl+0x12>
			1c19: R_386_PC32	dm_get_table
    1c1d:	85 c0                	test   %eax,%eax
    1c1f:	89 c3                	mov    %eax,%ebx
    1c21:	74 3d                	je     1c60 <dm_blk_ioctl+0x59>
    1c23:	e8 fc ff ff ff       	call   1c24 <dm_blk_ioctl+0x1d>
			1c24: R_386_PC32	dm_table_get_size
    1c28:	09 c2                	or     %eax,%edx
    1c2a:	74 34                	je     1c60 <dm_blk_ioctl+0x59>
    1c2c:	89 d8                	mov    %ebx,%eax
    1c2e:	e8 fc ff ff ff       	call   1c2f <dm_blk_ioctl+0x28>
			1c2f: R_386_PC32	dm_table_get_num_targets
    1c33:	48                   	dec    %eax
    1c34:	75 2a                	jne    1c60 <dm_blk_ioctl+0x59>
    1c36:	31 d2                	xor    %edx,%edx
    1c38:	89 d8                	mov    %ebx,%eax
    1c3a:	e8 fc ff ff ff       	call   1c3b <dm_blk_ioctl+0x34>
			1c3b: R_386_PC32	dm_table_get_target
    1c3f:	bd f5 ff ff ff       	mov    $0xfffffff5,%ebp
    1c44:	f6 46 30 02          	testb  $0x2,0x30(%esi)
    1c48:	75 1b                	jne    1c65 <dm_blk_ioctl+0x5e>
    1c4a:	8b 50 04             	mov    0x4(%eax),%edx
    1c4d:	8b 72 50             	mov    0x50(%edx),%esi
    1c50:	85 f6                	test   %esi,%esi
    1c52:	74 0c                	je     1c60 <dm_blk_ioctl+0x59>
    1c54:	8b 4c 24 14          	mov    0x14(%esp),%ecx
    1c58:	89 fa                	mov    %edi,%edx
    1c5a:	ff d6                	call   *%esi
    1c5c:	89 c5                	mov    %eax,%ebp
    1c5e:	eb 05                	jmp    1c65 <dm_blk_ioctl+0x5e>
    1c60:	bd e7 ff ff ff       	mov    $0xffffffe7,%ebp
    1c65:	89 d8                	mov    %ebx,%eax
    1c67:	e8 fc ff ff ff       	call   1c68 <dm_blk_ioctl+0x61>
			1c68: R_386_PC32	dm_table_put
    1c6c:	89 e8                	mov    %ebp,%eax
    1c6e:	5b                   	pop    %ebx
    1c6f:	5e                   	pop    %esi
    1c70:	5f                   	pop    %edi
    1c71:	5d                   	pop    %ebp
    1c72:	c3                   	ret    

00001c73 <__split_and_process_bio>:
    1c73:	55                   	push   %ebp
    1c74:	89 d5                	mov    %edx,%ebp
    1c76:	57                   	push   %edi
    1c77:	56                   	push   %esi
    1c78:	53                   	push   %ebx
    1c79:	83 ec 74             	sub    $0x74,%esp
    1c7c:	89 44 24 20          	mov    %eax,0x20(%esp)
    1c80:	e8 fc ff ff ff       	call   1c81 <__split_and_process_bio+0xe>
			1c81: R_386_PC32	dm_get_table
    1c85:	85 c0                	test   %eax,%eax
    1c87:	89 44 24 48          	mov    %eax,0x48(%esp)
    1c8b:	75 39                	jne    1cc6 <__split_and_process_bio+0x53>
    1c8d:	f6 45 14 20          	testb  $0x20,0x14(%ebp)
    1c91:	75 13                	jne    1ca6 <__split_and_process_bio+0x33>
    1c93:	83 c4 74             	add    $0x74,%esp
    1c96:	89 e8                	mov    %ebp,%eax
    1c98:	5b                   	pop    %ebx
    1c99:	ba fb ff ff ff       	mov    $0xfffffffb,%edx
    1c9e:	5e                   	pop    %esi
    1c9f:	5f                   	pop    %edi
    1ca0:	5d                   	pop    %ebp
    1ca1:	e9 fc ff ff ff       	jmp    1ca2 <__split_and_process_bio+0x2f>
			1ca2: R_386_PC32	bio_endio
    1ca6:	8b 44 24 20          	mov    0x20(%esp),%eax
    1caa:	83 b8 80 00 00 00 00 	cmpl   $0x0,0x80(%eax)
    1cb1:	0f 85 76 06 00 00    	jne    232d <__split_and_process_bio+0x6ba>
    1cb7:	c7 80 80 00 00 00 fb 	movl   $0xfffffffb,0x80(%eax)
    1cbe:	ff ff ff 
    1cc1:	e9 67 06 00 00       	jmp    232d <__split_and_process_bio+0x6ba>
    1cc6:	8b 54 24 20          	mov    0x20(%esp),%edx
    1cca:	8b 82 8c 00 00 00    	mov    0x8c(%edx),%eax
    1cd0:	ba 10 00 00 00       	mov    $0x10,%edx
    1cd5:	e8 fc ff ff ff       	call   1cd6 <__split_and_process_bio+0x63>
			1cd6: R_386_PC32	mempool_alloc
    1cda:	89 44 24 1c          	mov    %eax,0x1c(%esp)
    1cde:	c7 40 04 00 00 00 00 	movl   $0x0,0x4(%eax)
    1ce5:	c7 40 08 01 00 00 00 	movl   $0x1,0x8(%eax)
    1cec:	89 68 0c             	mov    %ebp,0xc(%eax)
    1cef:	8b 4c 24 20          	mov    0x20(%esp),%ecx
    1cf3:	c7 40 14 00 00 00 00 	movl   $0x0,0x14(%eax)
    1cfa:	89 08                	mov    %ecx,(%eax)
    1cfc:	8b 5d 00             	mov    0x0(%ebp),%ebx
    1cff:	8b 75 04             	mov    0x4(%ebp),%esi
    1d02:	89 5c 24 30          	mov    %ebx,0x30(%esp)
    1d06:	89 74 24 34          	mov    %esi,0x34(%esp)
    1d0a:	8b 45 20             	mov    0x20(%ebp),%eax
    1d0d:	c7 44 24 18 00 00 00 	movl   $0x0,0x18(%esp)
    1d14:	00 
    1d15:	c1 e8 09             	shr    $0x9,%eax
    1d18:	89 44 24 14          	mov    %eax,0x14(%esp)
    1d1c:	8b 45 14             	mov    0x14(%ebp),%eax
    1d1f:	a8 20                	test   $0x20,%al
    1d21:	74 1f                	je     1d42 <__split_and_process_bio+0xcf>
    1d23:	85 ed                	test   %ebp,%ebp
    1d25:	74 06                	je     1d2d <__split_and_process_bio+0xba>
    1d27:	83 7d 38 00          	cmpl   $0x0,0x38(%ebp)
    1d2b:	75 15                	jne    1d42 <__split_and_process_bio+0xcf>
    1d2d:	f6 c4 02             	test   $0x2,%ah
    1d30:	75 10                	jne    1d42 <__split_and_process_bio+0xcf>
    1d32:	c7 44 24 14 01 00 00 	movl   $0x1,0x14(%esp)
    1d39:	00 
    1d3a:	c7 44 24 18 00 00 00 	movl   $0x0,0x18(%esp)
    1d41:	00 
    1d42:	66 8b 75 1a          	mov    0x1a(%ebp),%si
    1d46:	8b 7c 24 1c          	mov    0x1c(%esp),%edi
    1d4a:	66 89 74 24 2e       	mov    %si,0x2e(%esp)
    1d4f:	8b 47 0c             	mov    0xc(%edi),%eax
    1d52:	8b 1f                	mov    (%edi),%ebx
    1d54:	8b 70 14             	mov    0x14(%eax),%esi
    1d57:	a1 00 00 00 00       	mov    0x0,%eax
			1d58: R_386_32	jiffies
    1d5c:	83 e6 01             	and    $0x1,%esi
    1d5f:	89 47 10             	mov    %eax,0x10(%edi)
    1d62:	8b 53 38             	mov    0x38(%ebx),%edx
    1d65:	64 a1 00 00 00 00    	mov    %fs:0x0,%eax
			1d67: R_386_32	per_cpu__cpu_number
    1d6b:	83 c2 34             	add    $0x34,%edx
    1d6e:	e8 fc ff ff ff       	call   1d6f <__split_and_process_bio+0xfc>
			1d6f: R_386_PC32	part_round_stats
    1d73:	8d 46 14             	lea    0x14(%esi),%eax
    1d76:	8b 4b 38             	mov    0x38(%ebx),%ecx
    1d79:	8d 14 83             	lea    (%ebx,%eax,4),%edx
    1d7c:	b8 01 00 00 00       	mov    $0x1,%eax
    1d81:	f0 0f c1 02          	lock xadd %eax,(%edx)
    1d85:	83 c6 5c             	add    $0x5c,%esi
    1d88:	40                   	inc    %eax
    1d89:	89 44 b1 0c          	mov    %eax,0xc(%ecx,%esi,4)
    1d8d:	31 d2                	xor    %edx,%edx
    1d8f:	e9 6e 05 00 00       	jmp    2302 <__split_and_process_bio+0x68f>
    1d94:	8b 45 14             	mov    0x14(%ebp),%eax
    1d97:	a8 20                	test   $0x20,%al
    1d99:	0f 84 d2 00 00 00    	je     1e71 <__split_and_process_bio+0x1fe>
    1d9f:	85 ed                	test   %ebp,%ebp
    1da1:	74 0a                	je     1dad <__split_and_process_bio+0x13a>
    1da3:	83 7d 38 00          	cmpl   $0x0,0x38(%ebp)
    1da7:	0f 85 c4 00 00 00    	jne    1e71 <__split_and_process_bio+0x1fe>
    1dad:	31 d2                	xor    %edx,%edx
    1daf:	f6 c4 02             	test   $0x2,%ah
    1db2:	0f 85 b9 00 00 00    	jne    1e71 <__split_and_process_bio+0x1fe>
    1db8:	eb 75                	jmp    1e2f <__split_and_process_bio+0x1bc>
    1dba:	8b 54 24 20          	mov    0x20(%esp),%edx
    1dbe:	8b 82 90 00 00 00    	mov    0x90(%edx),%eax
    1dc4:	ba 10 00 00 00       	mov    $0x10,%edx
    1dc9:	e8 fc ff ff ff       	call   1dca <__split_and_process_bio+0x157>
			1dca: R_386_PC32	mempool_alloc
    1dce:	8b 4c 24 1c          	mov    0x1c(%esp),%ecx
    1dd2:	89 c6                	mov    %eax,%esi
    1dd4:	89 08                	mov    %ecx,(%eax)
    1dd6:	8d 78 08             	lea    0x8(%eax),%edi
    1dd9:	b9 02 00 00 00       	mov    $0x2,%ecx
    1dde:	89 68 04             	mov    %ebp,0x4(%eax)
    1de1:	31 c0                	xor    %eax,%eax
    1de3:	f3 ab                	rep stos %eax,%es:(%edi)
    1de5:	8b 54 24 08          	mov    0x8(%esp),%edx
    1de9:	b0 10                	mov    $0x10,%al
    1deb:	89 56 08             	mov    %edx,0x8(%esi)
    1dee:	8b 5c 24 20          	mov    0x20(%esp),%ebx
    1df2:	31 d2                	xor    %edx,%edx
    1df4:	8b 8b 94 00 00 00    	mov    0x94(%ebx),%ecx
    1dfa:	e8 fc ff ff ff       	call   1dfb <__split_and_process_bio+0x188>
			1dfb: R_386_PC32	bio_alloc_bioset
    1dff:	8b 54 24 10          	mov    0x10(%esp),%edx
    1e03:	89 c3                	mov    %eax,%ebx
    1e05:	e8 fc ff ff ff       	call   1e06 <__split_and_process_bio+0x193>
			1e06: R_386_PC32	__bio_clone
    1e0a:	89 f1                	mov    %esi,%ecx
    1e0c:	89 da                	mov    %ebx,%edx
    1e0e:	c7 43 48 36 0f 00 00 	movl   $0xf36,0x48(%ebx)
			1e11: R_386_32	.text
    1e15:	89 e8                	mov    %ebp,%eax
    1e17:	e8 f0 f2 ff ff       	call   110c <__map_bio>
    1e1c:	ff 44 24 08          	incl   0x8(%esp)
    1e20:	8b 74 24 08          	mov    0x8(%esp),%esi
    1e24:	3b 75 20             	cmp    0x20(%ebp),%esi
    1e27:	72 91                	jb     1dba <__split_and_process_bio+0x147>
    1e29:	8b 54 24 14          	mov    0x14(%esp),%edx
    1e2d:	eb 04                	jmp    1e33 <__split_and_process_bio+0x1c0>
    1e2f:	89 6c 24 10          	mov    %ebp,0x10(%esp)
    1e33:	8b 44 24 48          	mov    0x48(%esp),%eax
    1e37:	8d 7a 01             	lea    0x1(%edx),%edi
    1e3a:	89 7c 24 14          	mov    %edi,0x14(%esp)
    1e3e:	e8 fc ff ff ff       	call   1e3f <__split_and_process_bio+0x1cc>
			1e3f: R_386_PC32	dm_table_get_target
    1e43:	85 c0                	test   %eax,%eax
    1e45:	89 c5                	mov    %eax,%ebp
    1e47:	75 1e                	jne    1e67 <__split_and_process_bio+0x1f4>
    1e49:	8b 6c 24 10          	mov    0x10(%esp),%ebp
    1e4d:	66 8b 5c 24 2e       	mov    0x2e(%esp),%bx
    1e52:	c7 44 24 14 00 00 00 	movl   $0x0,0x14(%esp)
    1e59:	00 
    1e5a:	c7 44 24 18 00 00 00 	movl   $0x0,0x18(%esp)
    1e61:	00 
    1e62:	e9 88 04 00 00       	jmp    22ef <__split_and_process_bio+0x67c>
    1e67:	c7 44 24 08 00 00 00 	movl   $0x0,0x8(%esp)
    1e6e:	00 
    1e6f:	eb af                	jmp    1e20 <__split_and_process_bio+0x1ad>
    1e71:	8b 54 24 30          	mov    0x30(%esp),%edx
    1e75:	8b 4c 24 34          	mov    0x34(%esp),%ecx
    1e79:	8b 44 24 48          	mov    0x48(%esp),%eax
    1e7d:	e8 fc ff ff ff       	call   1e7e <__split_and_process_bio+0x20b>
			1e7e: R_386_PC32	dm_table_find_target
    1e82:	89 44 24 10          	mov    %eax,0x10(%esp)
    1e86:	83 38 00             	cmpl   $0x0,(%eax)
    1e89:	0f 84 64 04 00 00    	je     22f3 <__split_and_process_bio+0x680>
    1e8f:	8b 4c 24 10          	mov    0x10(%esp),%ecx
    1e93:	8b 44 24 30          	mov    0x30(%esp),%eax
    1e97:	8b 54 24 34          	mov    0x34(%esp),%edx
    1e9b:	8b 59 10             	mov    0x10(%ecx),%ebx
    1e9e:	89 cf                	mov    %ecx,%edi
    1ea0:	8b 71 14             	mov    0x14(%ecx),%esi
    1ea3:	2b 41 08             	sub    0x8(%ecx),%eax
    1ea6:	1b 51 0c             	sbb    0xc(%ecx),%edx
    1ea9:	89 5c 24 08          	mov    %ebx,0x8(%esp)
    1ead:	29 44 24 08          	sub    %eax,0x8(%esp)
    1eb1:	89 74 24 0c          	mov    %esi,0xc(%esp)
    1eb5:	19 54 24 0c          	sbb    %edx,0xc(%esp)
    1eb9:	8b 5f 1c             	mov    0x1c(%edi),%ebx
    1ebc:	8b 49 18             	mov    0x18(%ecx),%ecx
    1ebf:	89 de                	mov    %ebx,%esi
    1ec1:	09 ce                	or     %ecx,%esi
    1ec3:	74 59                	je     1f1e <__split_and_process_bio+0x2ab>
    1ec5:	89 c6                	mov    %eax,%esi
    1ec7:	89 d7                	mov    %edx,%edi
    1ec9:	01 ce                	add    %ecx,%esi
    1ecb:	11 df                	adc    %ebx,%edi
    1ecd:	89 74 24 3c          	mov    %esi,0x3c(%esp)
    1ed1:	89 ce                	mov    %ecx,%esi
    1ed3:	f7 de                	neg    %esi
    1ed5:	89 7c 24 40          	mov    %edi,0x40(%esp)
    1ed9:	89 df                	mov    %ebx,%edi
    1edb:	83 d7 00             	adc    $0x0,%edi
    1ede:	f7 df                	neg    %edi
    1ee0:	89 74 24 24          	mov    %esi,0x24(%esp)
    1ee4:	23 74 24 3c          	and    0x3c(%esp),%esi
    1ee8:	89 7c 24 28          	mov    %edi,0x28(%esp)
    1eec:	23 7c 24 40          	and    0x40(%esp),%edi
    1ef0:	89 74 24 60          	mov    %esi,0x60(%esp)
    1ef4:	8b 4c 24 60          	mov    0x60(%esp),%ecx
    1ef8:	89 7c 24 64          	mov    %edi,0x64(%esp)
    1efc:	8b 5c 24 64          	mov    0x64(%esp),%ebx
    1f00:	29 c1                	sub    %eax,%ecx
    1f02:	89 c8                	mov    %ecx,%eax
    1f04:	19 d3                	sbb    %edx,%ebx
    1f06:	39 5c 24 0c          	cmp    %ebx,0xc(%esp)
    1f0a:	89 da                	mov    %ebx,%edx
    1f0c:	72 10                	jb     1f1e <__split_and_process_bio+0x2ab>
    1f0e:	77 06                	ja     1f16 <__split_and_process_bio+0x2a3>
    1f10:	39 4c 24 08          	cmp    %ecx,0x8(%esp)
    1f14:	76 08                	jbe    1f1e <__split_and_process_bio+0x2ab>
    1f16:	89 44 24 08          	mov    %eax,0x8(%esp)
    1f1a:	89 54 24 0c          	mov    %edx,0xc(%esp)
    1f1e:	8b 5c 24 20          	mov    0x20(%esp),%ebx
    1f22:	ba 10 00 00 00       	mov    $0x10,%edx
    1f27:	8b 83 90 00 00 00    	mov    0x90(%ebx),%eax
    1f2d:	e8 fc ff ff ff       	call   1f2e <__split_and_process_bio+0x2bb>
			1f2e: R_386_PC32	mempool_alloc
    1f32:	b9 02 00 00 00       	mov    $0x2,%ecx
    1f37:	8b 74 24 1c          	mov    0x1c(%esp),%esi
    1f3b:	89 44 24 38          	mov    %eax,0x38(%esp)
    1f3f:	89 30                	mov    %esi,(%eax)
    1f41:	8b 7c 24 10          	mov    0x10(%esp),%edi
    1f45:	89 78 04             	mov    %edi,0x4(%eax)
    1f48:	89 c7                	mov    %eax,%edi
    1f4a:	31 c0                	xor    %eax,%eax
    1f4c:	83 c7 08             	add    $0x8,%edi
    1f4f:	f3 ab                	rep stos %eax,%es:(%edi)
    1f51:	8b 54 24 0c          	mov    0xc(%esp),%edx
    1f55:	39 54 24 18          	cmp    %edx,0x18(%esp)
    1f59:	77 64                	ja     1fbf <__split_and_process_bio+0x34c>
    1f5b:	72 0a                	jb     1f67 <__split_and_process_bio+0x2f4>
    1f5d:	8b 4c 24 08          	mov    0x8(%esp),%ecx
    1f61:	39 4c 24 14          	cmp    %ecx,0x14(%esp)
    1f65:	77 58                	ja     1fbf <__split_and_process_bio+0x34c>
    1f67:	8b 5c 24 20          	mov    0x20(%esp),%ebx
    1f6b:	ff b3 94 00 00 00    	pushl  0x94(%ebx)
    1f71:	ff 74 24 18          	pushl  0x18(%esp)
    1f75:	8b 45 18             	mov    0x18(%ebp),%eax
    1f78:	66 2b 44 24 36       	sub    0x36(%esp),%ax
    1f7d:	0f b7 c0             	movzwl %ax,%eax
    1f80:	50                   	push   %eax
    1f81:	0f b7 44 24 3a       	movzwl 0x3a(%esp),%eax
    1f86:	50                   	push   %eax
    1f87:	8b 54 24 40          	mov    0x40(%esp),%edx
    1f8b:	89 e8                	mov    %ebp,%eax
    1f8d:	8b 4c 24 44          	mov    0x44(%esp),%ecx
    1f91:	e8 a8 ef ff ff       	call   f3e <clone_bio>
    1f96:	8b 4c 24 48          	mov    0x48(%esp),%ecx
    1f9a:	89 c2                	mov    %eax,%edx
    1f9c:	8b 44 24 20          	mov    0x20(%esp),%eax
    1fa0:	e8 67 f1 ff ff       	call   110c <__map_bio>
    1fa5:	66 8b 5c 24 3e       	mov    0x3e(%esp),%bx
    1faa:	c7 44 24 24 00 00 00 	movl   $0x0,0x24(%esp)
    1fb1:	00 
    1fb2:	c7 44 24 28 00 00 00 	movl   $0x0,0x28(%esp)
    1fb9:	00 
    1fba:	e9 fc 00 00 00       	jmp    20bb <__split_and_process_bio+0x448>
    1fbf:	0f b7 74 24 2e       	movzwl 0x2e(%esp),%esi
    1fc4:	6b fe 0c             	imul   $0xc,%esi,%edi
    1fc7:	89 74 24 3c          	mov    %esi,0x3c(%esp)
    1fcb:	89 7c 24 58          	mov    %edi,0x58(%esp)
    1fcf:	03 7d 38             	add    0x38(%ebp),%edi
    1fd2:	89 7c 24 50          	mov    %edi,0x50(%esp)
    1fd6:	8b 47 04             	mov    0x4(%edi),%eax
    1fd9:	c7 44 24 28 00 00 00 	movl   $0x0,0x28(%esp)
    1fe0:	00 
    1fe1:	c1 e8 09             	shr    $0x9,%eax
    1fe4:	89 44 24 24          	mov    %eax,0x24(%esp)
    1fe8:	8b 44 24 0c          	mov    0xc(%esp),%eax
    1fec:	39 44 24 28          	cmp    %eax,0x28(%esp)
    1ff0:	72 22                	jb     2014 <__split_and_process_bio+0x3a1>
    1ff2:	77 0a                	ja     1ffe <__split_and_process_bio+0x38b>
    1ff4:	8b 54 24 08          	mov    0x8(%esp),%edx
    1ff8:	39 54 24 24          	cmp    %edx,0x24(%esp)
    1ffc:	76 16                	jbe    2014 <__split_and_process_bio+0x3a1>
    1ffe:	0f b7 4c 24 2e       	movzwl 0x2e(%esp),%ecx
    2003:	c7 44 24 4c 00 00 00 	movl   $0x0,0x4c(%esp)
    200a:	00 
    200b:	89 4c 24 70          	mov    %ecx,0x70(%esp)
    200f:	e9 99 01 00 00       	jmp    21ad <__split_and_process_bio+0x53a>
    2014:	0f b7 5c 24 2e       	movzwl 0x2e(%esp),%ebx
    2019:	31 c9                	xor    %ecx,%ecx
    201b:	31 f6                	xor    %esi,%esi
    201d:	31 ff                	xor    %edi,%edi
    201f:	89 5c 24 44          	mov    %ebx,0x44(%esp)
    2023:	8b 5c 24 50          	mov    0x50(%esp),%ebx
    2027:	83 c3 04             	add    $0x4,%ebx
    202a:	eb 25                	jmp    2051 <__split_and_process_bio+0x3de>
    202c:	8b 03                	mov    (%ebx),%eax
    202e:	31 d2                	xor    %edx,%edx
    2030:	41                   	inc    %ecx
    2031:	83 c3 0c             	add    $0xc,%ebx
    2034:	c1 e8 09             	shr    $0x9,%eax
    2037:	3b 54 24 0c          	cmp    0xc(%esp),%edx
    203b:	77 32                	ja     206f <__split_and_process_bio+0x3fc>
    203d:	72 06                	jb     2045 <__split_and_process_bio+0x3d2>
    203f:	3b 44 24 08          	cmp    0x8(%esp),%eax
    2043:	77 2a                	ja     206f <__split_and_process_bio+0x3fc>
    2045:	29 44 24 08          	sub    %eax,0x8(%esp)
    2049:	19 54 24 0c          	sbb    %edx,0xc(%esp)
    204d:	01 c6                	add    %eax,%esi
    204f:	11 d7                	adc    %edx,%edi
    2051:	8b 44 24 3c          	mov    0x3c(%esp),%eax
    2055:	8b 54 24 0c          	mov    0xc(%esp),%edx
    2059:	01 c8                	add    %ecx,%eax
    205b:	0b 54 24 08          	or     0x8(%esp),%edx
    205f:	89 44 24 24          	mov    %eax,0x24(%esp)
    2063:	74 0a                	je     206f <__split_and_process_bio+0x3fc>
    2065:	0f b7 45 18          	movzwl 0x18(%ebp),%eax
    2069:	39 44 24 24          	cmp    %eax,0x24(%esp)
    206d:	7c bd                	jl     202c <__split_and_process_bio+0x3b9>
    206f:	8b 4c 24 20          	mov    0x20(%esp),%ecx
    2073:	8b 5c 24 24          	mov    0x24(%esp),%ebx
    2077:	ff b1 94 00 00 00    	pushl  0x94(%ecx)
    207d:	89 d8                	mov    %ebx,%eax
    207f:	56                   	push   %esi
    2080:	66 2b 44 24 36       	sub    0x36(%esp),%ax
    2085:	0f b7 c0             	movzwl %ax,%eax
    2088:	50                   	push   %eax
    2089:	89 e8                	mov    %ebp,%eax
    208b:	ff 74 24 50          	pushl  0x50(%esp)
    208f:	8b 54 24 40          	mov    0x40(%esp),%edx
    2093:	8b 4c 24 44          	mov    0x44(%esp),%ecx
    2097:	e8 a2 ee ff ff       	call   f3e <clone_bio>
    209c:	8b 4c 24 48          	mov    0x48(%esp),%ecx
    20a0:	89 c2                	mov    %eax,%edx
    20a2:	8b 44 24 20          	mov    0x20(%esp),%eax
    20a6:	e8 61 f0 ff ff       	call   110c <__map_bio>
    20ab:	01 74 24 40          	add    %esi,0x40(%esp)
    20af:	11 7c 24 44          	adc    %edi,0x44(%esp)
    20b3:	29 74 24 24          	sub    %esi,0x24(%esp)
    20b7:	19 7c 24 28          	sbb    %edi,0x28(%esp)
    20bb:	31 d2                	xor    %edx,%edx
    20bd:	83 c4 10             	add    $0x10,%esp
    20c0:	e9 38 02 00 00       	jmp    22fd <__split_and_process_bio+0x68a>
    20c5:	8b 5c 24 44          	mov    0x44(%esp),%ebx
    20c9:	01 5c 24 4c          	add    %ebx,0x4c(%esp)
    20cd:	0f 84 da 00 00 00    	je     21ad <__split_and_process_bio+0x53a>
    20d3:	8b 54 24 30          	mov    0x30(%esp),%edx
    20d7:	8b 4c 24 34          	mov    0x34(%esp),%ecx
    20db:	8b 44 24 48          	mov    0x48(%esp),%eax
    20df:	e8 fc ff ff ff       	call   20e0 <__split_and_process_bio+0x46d>
			20e0: R_386_PC32	dm_table_find_target
    20e4:	89 44 24 10          	mov    %eax,0x10(%esp)
    20e8:	83 38 00             	cmpl   $0x0,(%eax)
    20eb:	0f 84 02 02 00 00    	je     22f3 <__split_and_process_bio+0x680>
    20f1:	8b 4c 24 30          	mov    0x30(%esp),%ecx
    20f5:	89 c6                	mov    %eax,%esi
    20f7:	8b 5c 24 34          	mov    0x34(%esp),%ebx
    20fb:	2b 48 08             	sub    0x8(%eax),%ecx
    20fe:	1b 58 0c             	sbb    0xc(%eax),%ebx
    2101:	8b 40 10             	mov    0x10(%eax),%eax
    2104:	8b 56 14             	mov    0x14(%esi),%edx
    2107:	89 44 24 08          	mov    %eax,0x8(%esp)
    210b:	29 4c 24 08          	sub    %ecx,0x8(%esp)
    210f:	89 54 24 0c          	mov    %edx,0xc(%esp)
    2113:	19 5c 24 0c          	sbb    %ebx,0xc(%esp)
    2117:	8b 56 1c             	mov    0x1c(%esi),%edx
    211a:	8b 46 18             	mov    0x18(%esi),%eax
    211d:	89 d7                	mov    %edx,%edi
    211f:	09 c7                	or     %eax,%edi
    2121:	74 57                	je     217a <__split_and_process_bio+0x507>
    2123:	89 ce                	mov    %ecx,%esi
    2125:	89 df                	mov    %ebx,%edi
    2127:	01 c6                	add    %eax,%esi
    2129:	11 d7                	adc    %edx,%edi
    212b:	89 34 24             	mov    %esi,(%esp)
    212e:	89 c6                	mov    %eax,%esi
    2130:	f7 de                	neg    %esi
    2132:	89 7c 24 04          	mov    %edi,0x4(%esp)
    2136:	89 d7                	mov    %edx,%edi
    2138:	83 d7 00             	adc    $0x0,%edi
    213b:	f7 df                	neg    %edi
    213d:	89 74 24 3c          	mov    %esi,0x3c(%esp)
    2141:	23 34 24             	and    (%esp),%esi
    2144:	89 7c 24 40          	mov    %edi,0x40(%esp)
    2148:	23 7c 24 04          	and    0x4(%esp),%edi
    214c:	89 74 24 68          	mov    %esi,0x68(%esp)
    2150:	8b 44 24 68          	mov    0x68(%esp),%eax
    2154:	89 7c 24 6c          	mov    %edi,0x6c(%esp)
    2158:	8b 54 24 6c          	mov    0x6c(%esp),%edx
    215c:	29 c8                	sub    %ecx,%eax
    215e:	89 c1                	mov    %eax,%ecx
    2160:	19 da                	sbb    %ebx,%edx
    2162:	39 54 24 0c          	cmp    %edx,0xc(%esp)
    2166:	89 d3                	mov    %edx,%ebx
    2168:	72 10                	jb     217a <__split_and_process_bio+0x507>
    216a:	77 06                	ja     2172 <__split_and_process_bio+0x4ff>
    216c:	39 44 24 08          	cmp    %eax,0x8(%esp)
    2170:	76 08                	jbe    217a <__split_and_process_bio+0x507>
    2172:	89 4c 24 08          	mov    %ecx,0x8(%esp)
    2176:	89 5c 24 0c          	mov    %ebx,0xc(%esp)
    217a:	8b 54 24 20          	mov    0x20(%esp),%edx
    217e:	8b 82 90 00 00 00    	mov    0x90(%edx),%eax
    2184:	ba 10 00 00 00       	mov    $0x10,%edx
    2189:	e8 fc ff ff ff       	call   218a <__split_and_process_bio+0x517>
			218a: R_386_PC32	mempool_alloc
    218e:	8b 4c 24 1c          	mov    0x1c(%esp),%ecx
    2192:	89 44 24 38          	mov    %eax,0x38(%esp)
    2196:	89 c7                	mov    %eax,%edi
    2198:	89 08                	mov    %ecx,(%eax)
    219a:	8b 5c 24 10          	mov    0x10(%esp),%ebx
    219e:	83 c7 08             	add    $0x8,%edi
    21a1:	b9 02 00 00 00       	mov    $0x2,%ecx
    21a6:	89 58 04             	mov    %ebx,0x4(%eax)
    21a9:	31 c0                	xor    %eax,%eax
    21ab:	f3 ab                	rep stos %eax,%es:(%edi)
    21ad:	8b 4c 24 28          	mov    0x28(%esp),%ecx
    21b1:	8b 54 24 24          	mov    0x24(%esp),%edx
    21b5:	89 4c 24 40          	mov    %ecx,0x40(%esp)
    21b9:	8b 4c 24 0c          	mov    0xc(%esp),%ecx
    21bd:	39 4c 24 28          	cmp    %ecx,0x28(%esp)
    21c1:	89 54 24 3c          	mov    %edx,0x3c(%esp)
    21c5:	72 1c                	jb     21e3 <__split_and_process_bio+0x570>
    21c7:	77 0a                	ja     21d3 <__split_and_process_bio+0x560>
    21c9:	8b 5c 24 08          	mov    0x8(%esp),%ebx
    21cd:	39 5c 24 24          	cmp    %ebx,0x24(%esp)
    21d1:	76 10                	jbe    21e3 <__split_and_process_bio+0x570>
    21d3:	8b 74 24 08          	mov    0x8(%esp),%esi
    21d7:	8b 7c 24 0c          	mov    0xc(%esp),%edi
    21db:	89 74 24 3c          	mov    %esi,0x3c(%esp)
    21df:	89 7c 24 40          	mov    %edi,0x40(%esp)
    21e3:	8b 7c 24 20          	mov    0x20(%esp),%edi
    21e7:	8b 44 24 3c          	mov    0x3c(%esp),%eax
    21eb:	8b 54 24 50          	mov    0x50(%esp),%edx
    21ef:	8b 4c 24 4c          	mov    0x4c(%esp),%ecx
    21f3:	8b bf 94 00 00 00    	mov    0x94(%edi),%edi
    21f9:	89 44 24 44          	mov    %eax,0x44(%esp)
    21fd:	8b 74 24 58          	mov    0x58(%esp),%esi
    2201:	b8 10 00 00 00       	mov    $0x10,%eax
    2206:	89 7c 24 54          	mov    %edi,0x54(%esp)
    220a:	03 4a 08             	add    0x8(%edx),%ecx
    220d:	ba 01 00 00 00       	mov    $0x1,%edx
    2212:	89 4c 24 5c          	mov    %ecx,0x5c(%esp)
    2216:	89 f9                	mov    %edi,%ecx
    2218:	03 75 38             	add    0x38(%ebp),%esi
    221b:	e8 fc ff ff ff       	call   221c <__split_and_process_bio+0x5a9>
			221c: R_386_PC32	bio_alloc_bioset
    2220:	b9 03 00 00 00       	mov    $0x3,%ecx
    2225:	c7 40 48 36 0f 00 00 	movl   $0xf36,0x48(%eax)
			2228: R_386_32	.text
    222c:	89 c3                	mov    %eax,%ebx
    222e:	8b 40 38             	mov    0x38(%eax),%eax
    2231:	89 c7                	mov    %eax,%edi
    2233:	f3 a5                	rep movsl %ds:(%esi),%es:(%edi)
    2235:	8b 7c 24 34          	mov    0x34(%esp),%edi
    2239:	8b 74 24 30          	mov    0x30(%esp),%esi
    223d:	89 7b 04             	mov    %edi,0x4(%ebx)
    2240:	89 33                	mov    %esi,(%ebx)
    2242:	8b 45 0c             	mov    0xc(%ebp),%eax
    2245:	89 43 0c             	mov    %eax,0xc(%ebx)
    2248:	8b 45 14             	mov    0x14(%ebp),%eax
    224b:	66 c7 43 18 01 00    	movw   $0x1,0x18(%ebx)
    2251:	83 e0 df             	and    $0xffffffdf,%eax
    2254:	89 43 14             	mov    %eax,0x14(%ebx)
    2257:	c1 64 24 44 09       	shll   $0x9,0x44(%esp)
    225c:	8b 7c 24 44          	mov    0x44(%esp),%edi
    2260:	8b 43 38             	mov    0x38(%ebx),%eax
    2263:	89 7b 20             	mov    %edi,0x20(%ebx)
    2266:	8b 54 24 5c          	mov    0x5c(%esp),%edx
    226a:	89 50 08             	mov    %edx,0x8(%eax)
    226d:	8b 53 38             	mov    0x38(%ebx),%edx
    2270:	8b 43 20             	mov    0x20(%ebx),%eax
    2273:	89 42 04             	mov    %eax,0x4(%edx)
    2276:	83 4b 10 10          	orl    $0x10,0x10(%ebx)
    227a:	83 7d 44 00          	cmpl   $0x0,0x44(%ebp)
    227e:	74 2c                	je     22ac <__split_and_process_bio+0x639>
    2280:	ff 74 24 54          	pushl  0x54(%esp)
    2284:	b1 10                	mov    $0x10,%cl
    2286:	89 ea                	mov    %ebp,%edx
    2288:	89 d8                	mov    %ebx,%eax
    228a:	e8 fc ff ff ff       	call   228b <__split_and_process_bio+0x618>
			228b: R_386_PC32	bio_integrity_clone
    228f:	89 e8                	mov    %ebp,%eax
    2291:	8b 4c 24 60          	mov    0x60(%esp),%ecx
    2295:	8b 54 24 74          	mov    0x74(%esp),%edx
    2299:	e8 fc ff ff ff       	call   229a <__split_and_process_bio+0x627>
			229a: R_386_PC32	bio_sector_offset
    229e:	8b 4c 24 40          	mov    0x40(%esp),%ecx
    22a2:	89 c2                	mov    %eax,%edx
    22a4:	89 d8                	mov    %ebx,%eax
    22a6:	e8 fc ff ff ff       	call   22a7 <__split_and_process_bio+0x634>
			22a7: R_386_PC32	bio_integrity_trim
    22ab:	58                   	pop    %eax
    22ac:	8b 4c 24 38          	mov    0x38(%esp),%ecx
    22b0:	89 da                	mov    %ebx,%edx
    22b2:	8b 44 24 10          	mov    0x10(%esp),%eax
    22b6:	e8 51 ee ff ff       	call   110c <__map_bio>
    22bb:	8b 4c 24 3c          	mov    0x3c(%esp),%ecx
    22bf:	8b 5c 24 40          	mov    0x40(%esp),%ebx
    22c3:	01 4c 24 30          	add    %ecx,0x30(%esp)
    22c7:	11 5c 24 34          	adc    %ebx,0x34(%esp)
    22cb:	29 4c 24 14          	sub    %ecx,0x14(%esp)
    22cf:	19 5c 24 18          	sbb    %ebx,0x18(%esp)
    22d3:	29 4c 24 24          	sub    %ecx,0x24(%esp)
    22d7:	19 5c 24 28          	sbb    %ebx,0x28(%esp)
    22db:	8b 5c 24 28          	mov    0x28(%esp),%ebx
    22df:	0b 5c 24 24          	or     0x24(%esp),%ebx
    22e3:	0f 85 dc fd ff ff    	jne    20c5 <__split_and_process_bio+0x452>
    22e9:	66 8b 5c 24 2e       	mov    0x2e(%esp),%bx
    22ee:	43                   	inc    %ebx
    22ef:	31 d2                	xor    %edx,%edx
    22f1:	eb 0a                	jmp    22fd <__split_and_process_bio+0x68a>
    22f3:	66 8b 5c 24 2e       	mov    0x2e(%esp),%bx
    22f8:	ba fb ff ff ff       	mov    $0xfffffffb,%edx
    22fd:	66 89 5c 24 2e       	mov    %bx,0x2e(%esp)
    2302:	85 d2                	test   %edx,%edx
    2304:	75 0e                	jne    2314 <__split_and_process_bio+0x6a1>
    2306:	8b 74 24 18          	mov    0x18(%esp),%esi
    230a:	0b 74 24 14          	or     0x14(%esp),%esi
    230e:	0f 85 80 fa ff ff    	jne    1d94 <__split_and_process_bio+0x121>
    2314:	8b 44 24 1c          	mov    0x1c(%esp),%eax
    2318:	e8 e3 ec ff ff       	call   1000 <dec_pending>
    231d:	8b 44 24 48          	mov    0x48(%esp),%eax
    2321:	83 c4 74             	add    $0x74,%esp
    2324:	5b                   	pop    %ebx
    2325:	5e                   	pop    %esi
    2326:	5f                   	pop    %edi
    2327:	5d                   	pop    %ebp
    2328:	e9 fc ff ff ff       	jmp    2329 <__split_and_process_bio+0x6b6>
			2329: R_386_PC32	dm_table_put
    232d:	83 c4 74             	add    $0x74,%esp
    2330:	5b                   	pop    %ebx
    2331:	5e                   	pop    %esi
    2332:	5f                   	pop    %edi
    2333:	5d                   	pop    %ebp
    2334:	c3                   	ret    

00002335 <dm_flush>:
    2335:	56                   	push   %esi
    2336:	ba 02 00 00 00       	mov    $0x2,%edx
    233b:	53                   	push   %ebx
    233c:	89 c3                	mov    %eax,%ebx
    233e:	e8 d0 f2 ff ff       	call   1613 <dm_wait_for_completion>
    2343:	8d b3 b8 01 00 00    	lea    0x1b8(%ebx),%esi
    2349:	89 f0                	mov    %esi,%eax
    234b:	e8 fc ff ff ff       	call   234c <dm_flush+0x17>
			234c: R_386_PC32	bio_init
    2350:	8b 83 bc 00 00 00    	mov    0xbc(%ebx),%eax
    2356:	89 f2                	mov    %esi,%edx
    2358:	c7 83 cc 01 00 00 21 	movl   $0x21,0x1cc(%ebx)
    235f:	00 00 00 
    2362:	89 83 c4 01 00 00    	mov    %eax,0x1c4(%ebx)
    2368:	89 d8                	mov    %ebx,%eax
    236a:	e8 04 f9 ff ff       	call   1c73 <__split_and_process_bio>
    236f:	89 d8                	mov    %ebx,%eax
    2371:	ba 02 00 00 00       	mov    $0x2,%edx
    2376:	5b                   	pop    %ebx
    2377:	5e                   	pop    %esi
    2378:	e9 96 f2 ff ff       	jmp    1613 <dm_wait_for_completion>

0000237d <dm_wq_work>:
    237d:	57                   	push   %edi
    237e:	89 c7                	mov    %eax,%edi
    2380:	56                   	push   %esi
    2381:	83 c7 18             	add    $0x18,%edi
    2384:	53                   	push   %ebx
    2385:	8d 58 9c             	lea    -0x64(%eax),%ebx
    2388:	89 d8                	mov    %ebx,%eax
    238a:	e8 fc ff ff ff       	call   238b <dm_wq_work+0xe>
			238b: R_386_PC32	down_write
    238f:	e9 d3 00 00 00       	jmp    2467 <dm_wq_work+0xea>
    2394:	89 f8                	mov    %edi,%eax
    2396:	e8 fc ff ff ff       	call   2397 <dm_wq_work+0x1a>
			2397: R_386_PC32	_spin_lock_irq
    239b:	8b 73 74             	mov    0x74(%ebx),%esi
    239e:	85 f6                	test   %esi,%esi
    23a0:	74 18                	je     23ba <dm_wq_work+0x3d>
    23a2:	8b 46 08             	mov    0x8(%esi),%eax
    23a5:	85 c0                	test   %eax,%eax
    23a7:	89 43 74             	mov    %eax,0x74(%ebx)
    23aa:	75 07                	jne    23b3 <dm_wq_work+0x36>
    23ac:	c7 43 78 00 00 00 00 	movl   $0x0,0x78(%ebx)
    23b3:	c7 46 08 00 00 00 00 	movl   $0x0,0x8(%esi)
    23ba:	fe 07                	incb   (%edi)
    23bc:	ff 15 0c 00 00 00    	call   *0xc
			23be: R_386_32	pv_irq_ops
    23c2:	85 f6                	test   %esi,%esi
    23c4:	75 0a                	jne    23d0 <dm_wq_work+0x53>
    23c6:	f0 80 63 30 bf       	lock andb $0xbf,0x30(%ebx)
    23cb:	e9 a1 00 00 00       	jmp    2471 <dm_wq_work+0xf4>
    23d0:	89 d8                	mov    %ebx,%eax
    23d2:	e8 fc ff ff ff       	call   23d3 <dm_wq_work+0x56>
			23d3: R_386_PC32	up_write
    23d7:	8b 43 34             	mov    0x34(%ebx),%eax
    23da:	f6 80 b1 01 00 00 20 	testb  $0x20,0x1b1(%eax)
    23e1:	74 09                	je     23ec <dm_wq_work+0x6f>
    23e3:	89 f0                	mov    %esi,%eax
    23e5:	e8 fc ff ff ff       	call   23e6 <dm_wq_work+0x69>
			23e6: R_386_PC32	generic_make_request
    23ea:	eb 74                	jmp    2460 <dm_wq_work+0xe3>
    23ec:	f6 46 14 20          	testb  $0x20,0x14(%esi)
    23f0:	74 65                	je     2457 <dm_wq_work+0xda>
    23f2:	89 d8                	mov    %ebx,%eax
    23f4:	c7 83 80 00 00 00 00 	movl   $0x0,0x80(%ebx)
    23fb:	00 00 00 
    23fe:	e8 32 ff ff ff       	call   2335 <dm_flush>
    2403:	8b 46 14             	mov    0x14(%esi),%eax
    2406:	a8 20                	test   $0x20,%al
    2408:	74 06                	je     2410 <dm_wq_work+0x93>
    240a:	83 7e 38 00          	cmpl   $0x0,0x38(%esi)
    240e:	74 6b                	je     247b <dm_wq_work+0xfe>
    2410:	89 d8                	mov    %ebx,%eax
    2412:	89 f2                	mov    %esi,%edx
    2414:	e8 5a f8 ff ff       	call   1c73 <__split_and_process_bio>
    2419:	89 d8                	mov    %ebx,%eax
    241b:	e8 15 ff ff ff       	call   2335 <dm_flush>
    2420:	8b 93 80 00 00 00    	mov    0x80(%ebx),%edx
    2426:	83 fa 02             	cmp    $0x2,%edx
    2429:	74 09                	je     2434 <dm_wq_work+0xb7>
    242b:	89 f0                	mov    %esi,%eax
    242d:	e8 fc ff ff ff       	call   242e <dm_wq_work+0xb1>
			242e: R_386_PC32	bio_endio
    2432:	eb 2c                	jmp    2460 <dm_wq_work+0xe3>
    2434:	89 f8                	mov    %edi,%eax
    2436:	e8 fc ff ff ff       	call   2437 <dm_wq_work+0xba>
			2437: R_386_PC32	_spin_lock_irq
    243b:	8b 43 74             	mov    0x74(%ebx),%eax
    243e:	89 46 08             	mov    %eax,0x8(%esi)
    2441:	83 7b 78 00          	cmpl   $0x0,0x78(%ebx)
    2445:	89 73 74             	mov    %esi,0x74(%ebx)
    2448:	75 03                	jne    244d <dm_wq_work+0xd0>
    244a:	89 73 78             	mov    %esi,0x78(%ebx)
    244d:	fe 07                	incb   (%edi)
    244f:	ff 15 0c 00 00 00    	call   *0xc
			2451: R_386_32	pv_irq_ops
    2455:	eb 09                	jmp    2460 <dm_wq_work+0xe3>
    2457:	89 f2                	mov    %esi,%edx
    2459:	89 d8                	mov    %ebx,%eax
    245b:	e8 13 f8 ff ff       	call   1c73 <__split_and_process_bio>
    2460:	89 d8                	mov    %ebx,%eax
    2462:	e8 fc ff ff ff       	call   2463 <dm_wq_work+0xe6>
			2463: R_386_PC32	down_write
    2467:	f6 43 30 01          	testb  $0x1,0x30(%ebx)
    246b:	0f 84 23 ff ff ff    	je     2394 <dm_wq_work+0x17>
    2471:	89 d8                	mov    %ebx,%eax
    2473:	5b                   	pop    %ebx
    2474:	5e                   	pop    %esi
    2475:	5f                   	pop    %edi
    2476:	e9 fc ff ff ff       	jmp    2477 <dm_wq_work+0xfa>
			2477: R_386_PC32	up_write
    247b:	f6 c4 02             	test   $0x2,%ah
    247e:	75 90                	jne    2410 <dm_wq_work+0x93>
    2480:	eb 9e                	jmp    2420 <dm_wq_work+0xa3>

00002482 <dm_request>:
    2482:	57                   	push   %edi
    2483:	56                   	push   %esi
    2484:	89 d6                	mov    %edx,%esi
    2486:	53                   	push   %ebx
    2487:	8b 98 a8 01 00 00    	mov    0x1a8(%eax),%ebx
    248d:	8b 7e 14             	mov    0x14(%esi),%edi
    2490:	8b 53 34             	mov    0x34(%ebx),%edx
    2493:	f6 82 b1 01 00 00 20 	testb  $0x20,0x1b1(%edx)
    249a:	74 1c                	je     24b8 <dm_request+0x36>
    249c:	83 e7 20             	and    $0x20,%edi
    249f:	74 0a                	je     24ab <dm_request+0x29>
    24a1:	ba a1 ff ff ff       	mov    $0xffffffa1,%edx
    24a6:	e9 cd 00 00 00       	jmp    2578 <dm_request+0xf6>
    24ab:	89 f2                	mov    %esi,%edx
    24ad:	ff 93 90 01 00 00    	call   *0x190(%ebx)
    24b3:	e9 2f 01 00 00       	jmp    25e7 <dm_request+0x165>
    24b8:	89 d8                	mov    %ebx,%eax
    24ba:	83 e7 01             	and    $0x1,%edi
    24bd:	e8 fc ff ff ff       	call   24be <dm_request+0x3c>
			24be: R_386_PC32	down_read
    24c2:	8b 43 38             	mov    0x38(%ebx),%eax
    24c5:	64 8b 15 00 00 00 00 	mov    %fs:0x0,%edx
			24c8: R_386_32	per_cpu__cpu_number
    24cc:	8b 80 84 01 00 00    	mov    0x184(%eax),%eax
    24d2:	03 04 95 00 00 00 00 	add    0x0(,%edx,4),%eax
			24d5: R_386_32	__per_cpu_offset
    24d9:	ff 44 b8 08          	incl   0x8(%eax,%edi,4)
    24dd:	8b 43 38             	mov    0x38(%ebx),%eax
    24e0:	83 b8 74 01 00 00 00 	cmpl   $0x0,0x174(%eax)
    24e7:	74 1e                	je     2507 <dm_request+0x85>
    24e9:	31 c9                	xor    %ecx,%ecx
    24eb:	83 f8 cc             	cmp    $0xffffffcc,%eax
    24ee:	74 06                	je     24f6 <dm_request+0x74>
    24f0:	8b 48 4c             	mov    0x4c(%eax),%ecx
    24f3:	83 e9 4c             	sub    $0x4c,%ecx
    24f6:	8b 81 84 01 00 00    	mov    0x184(%ecx),%eax
    24fc:	03 04 95 00 00 00 00 	add    0x0(,%edx,4),%eax
			24ff: R_386_32	__per_cpu_offset
    2503:	ff 44 b8 08          	incl   0x8(%eax,%edi,4)
    2507:	8b 43 38             	mov    0x38(%ebx),%eax
    250a:	8b 4e 20             	mov    0x20(%esi),%ecx
    250d:	8b 80 84 01 00 00    	mov    0x184(%eax),%eax
    2513:	03 04 95 00 00 00 00 	add    0x0(,%edx,4),%eax
			2516: R_386_32	__per_cpu_offset
    251a:	c1 e9 09             	shr    $0x9,%ecx
    251d:	01 0c b8             	add    %ecx,(%eax,%edi,4)
    2520:	8b 43 38             	mov    0x38(%ebx),%eax
    2523:	83 b8 74 01 00 00 00 	cmpl   $0x0,0x174(%eax)
    252a:	74 23                	je     254f <dm_request+0xcd>
    252c:	31 c9                	xor    %ecx,%ecx
    252e:	83 f8 cc             	cmp    $0xffffffcc,%eax
    2531:	74 06                	je     2539 <dm_request+0xb7>
    2533:	8b 48 4c             	mov    0x4c(%eax),%ecx
    2536:	83 e9 4c             	sub    $0x4c,%ecx
    2539:	8b 81 84 01 00 00    	mov    0x184(%ecx),%eax
    253f:	03 04 95 00 00 00 00 	add    0x0(,%edx,4),%eax
			2542: R_386_32	__per_cpu_offset
    2546:	8b 56 20             	mov    0x20(%esi),%edx
    2549:	c1 ea 09             	shr    $0x9,%edx
    254c:	01 14 b8             	add    %edx,(%eax,%edi,4)
    254f:	f6 43 30 40          	testb  $0x40,0x30(%ebx)
    2553:	75 06                	jne    255b <dm_request+0xd9>
    2555:	f6 46 14 20          	testb  $0x20,0x14(%esi)
    2559:	74 7a                	je     25d5 <dm_request+0x153>
    255b:	89 d8                	mov    %ebx,%eax
    255d:	e8 fc ff ff ff       	call   255e <dm_request+0xdc>
			255e: R_386_PC32	up_read
    2562:	f6 43 30 01          	testb  $0x1,0x30(%ebx)
    2566:	74 19                	je     2581 <dm_request+0xff>
    2568:	8b 46 14             	mov    0x14(%esi),%eax
    256b:	83 e0 03             	and    $0x3,%eax
    256e:	83 f8 02             	cmp    $0x2,%eax
    2571:	75 0e                	jne    2581 <dm_request+0xff>
    2573:	ba fb ff ff ff       	mov    $0xfffffffb,%edx
    2578:	89 f0                	mov    %esi,%eax
    257a:	e8 fc ff ff ff       	call   257b <dm_request+0xf9>
			257b: R_386_PC32	bio_endio
    257f:	eb 64                	jmp    25e5 <dm_request+0x163>
    2581:	89 d8                	mov    %ebx,%eax
    2583:	e8 fc ff ff ff       	call   2584 <dm_request+0x102>
			2584: R_386_PC32	down_write
    2588:	8d 43 7c             	lea    0x7c(%ebx),%eax
    258b:	e8 fc ff ff ff       	call   258c <dm_request+0x10a>
			258c: R_386_PC32	_spin_lock_irq
    2590:	c7 46 08 00 00 00 00 	movl   $0x0,0x8(%esi)
    2597:	8b 43 78             	mov    0x78(%ebx),%eax
    259a:	85 c0                	test   %eax,%eax
    259c:	74 05                	je     25a3 <dm_request+0x121>
    259e:	89 70 08             	mov    %esi,0x8(%eax)
    25a1:	eb 03                	jmp    25a6 <dm_request+0x124>
    25a3:	89 73 74             	mov    %esi,0x74(%ebx)
    25a6:	89 73 78             	mov    %esi,0x78(%ebx)
    25a9:	fe 43 7c             	incb   0x7c(%ebx)
    25ac:	ff 15 0c 00 00 00    	call   *0xc
			25ae: R_386_32	pv_irq_ops
    25b2:	f0 0f ba 6b 30 06    	lock btsl $0x6,0x30(%ebx)
    25b8:	19 c0                	sbb    %eax,%eax
    25ba:	85 c0                	test   %eax,%eax
    25bc:	75 0e                	jne    25cc <dm_request+0x14a>
    25be:	8b 83 84 00 00 00    	mov    0x84(%ebx),%eax
    25c4:	8d 53 64             	lea    0x64(%ebx),%edx
    25c7:	e8 fc ff ff ff       	call   25c8 <dm_request+0x146>
			25c8: R_386_PC32	queue_work
    25cc:	89 d8                	mov    %ebx,%eax
    25ce:	e8 fc ff ff ff       	call   25cf <dm_request+0x14d>
			25cf: R_386_PC32	up_write
    25d3:	eb 10                	jmp    25e5 <dm_request+0x163>
    25d5:	89 d8                	mov    %ebx,%eax
    25d7:	89 f2                	mov    %esi,%edx
    25d9:	e8 95 f6 ff ff       	call   1c73 <__split_and_process_bio>
    25de:	89 d8                	mov    %ebx,%eax
    25e0:	e8 fc ff ff ff       	call   25e1 <dm_request+0x15f>
			25e1: R_386_PC32	up_read
    25e5:	31 c0                	xor    %eax,%eax
    25e7:	5b                   	pop    %ebx
    25e8:	5e                   	pop    %esi
    25e9:	5f                   	pop    %edi
    25ea:	c3                   	ret    

000025eb <dm_lld_busy>:
    25eb:	56                   	push   %esi
    25ec:	53                   	push   %ebx
    25ed:	8b b0 a8 01 00 00    	mov    0x1a8(%eax),%esi
    25f3:	89 f0                	mov    %esi,%eax
    25f5:	e8 fc ff ff ff       	call   25f6 <dm_lld_busy+0xb>
			25f6: R_386_PC32	dm_get_table
    25fa:	85 c0                	test   %eax,%eax
    25fc:	89 c3                	mov    %eax,%ebx
    25fe:	74 0f                	je     260f <dm_lld_busy+0x24>
    2600:	f6 46 30 01          	testb  $0x1,0x30(%esi)
    2604:	75 09                	jne    260f <dm_lld_busy+0x24>
    2606:	e8 fc ff ff ff       	call   2607 <dm_lld_busy+0x1c>
			2607: R_386_PC32	dm_table_any_busy_target
    260b:	89 c6                	mov    %eax,%esi
    260d:	eb 05                	jmp    2614 <dm_lld_busy+0x29>
    260f:	be 01 00 00 00       	mov    $0x1,%esi
    2614:	89 d8                	mov    %ebx,%eax
    2616:	e8 fc ff ff ff       	call   2617 <dm_lld_busy+0x2c>
			2617: R_386_PC32	dm_table_put
    261b:	89 f0                	mov    %esi,%eax
    261d:	5b                   	pop    %ebx
    261e:	5e                   	pop    %esi
    261f:	c3                   	ret    

00002620 <dm_merge_bvec>:
    2620:	55                   	push   %ebp
    2621:	89 c5                	mov    %eax,%ebp
    2623:	57                   	push   %edi
    2624:	56                   	push   %esi
    2625:	53                   	push   %ebx
    2626:	89 d3                	mov    %edx,%ebx
    2628:	83 ec 2c             	sub    $0x2c,%esp
    262b:	89 4c 24 20          	mov    %ecx,0x20(%esp)
    262f:	8b 80 a8 01 00 00    	mov    0x1a8(%eax),%eax
    2635:	e8 fc ff ff ff       	call   2636 <dm_merge_bvec+0x16>
			2636: R_386_PC32	dm_get_table
    263a:	31 d2                	xor    %edx,%edx
    263c:	85 c0                	test   %eax,%eax
    263e:	89 44 24 14          	mov    %eax,0x14(%esp)
    2642:	0f 84 07 01 00 00    	je     274f <dm_merge_bvec+0x12f>
    2648:	8b 53 04             	mov    0x4(%ebx),%edx
    264b:	8b 4b 08             	mov    0x8(%ebx),%ecx
    264e:	e8 fc ff ff ff       	call   264f <dm_merge_bvec+0x2f>
			264f: R_386_PC32	dm_table_find_target
    2653:	83 38 00             	cmpl   $0x0,(%eax)
    2656:	0f 84 e0 00 00 00    	je     273c <dm_merge_bvec+0x11c>
    265c:	8b 50 10             	mov    0x10(%eax),%edx
    265f:	8b 48 14             	mov    0x14(%eax),%ecx
    2662:	8b 73 04             	mov    0x4(%ebx),%esi
    2665:	8b 7b 08             	mov    0x8(%ebx),%edi
    2668:	2b 70 08             	sub    0x8(%eax),%esi
    266b:	1b 78 0c             	sbb    0xc(%eax),%edi
    266e:	89 14 24             	mov    %edx,(%esp)
    2671:	29 34 24             	sub    %esi,(%esp)
    2674:	89 4c 24 04          	mov    %ecx,0x4(%esp)
    2678:	19 7c 24 04          	sbb    %edi,0x4(%esp)
    267c:	8b 50 18             	mov    0x18(%eax),%edx
    267f:	8b 48 1c             	mov    0x1c(%eax),%ecx
    2682:	89 54 24 0c          	mov    %edx,0xc(%esp)
    2686:	89 4c 24 10          	mov    %ecx,0x10(%esp)
    268a:	09 d1                	or     %edx,%ecx
    268c:	74 65                	je     26f3 <dm_merge_bvec+0xd3>
    268e:	8b 54 24 0c          	mov    0xc(%esp),%edx
    2692:	8b 4c 24 10          	mov    0x10(%esp),%ecx
    2696:	01 f2                	add    %esi,%edx
    2698:	11 f9                	adc    %edi,%ecx
    269a:	89 54 24 24          	mov    %edx,0x24(%esp)
    269e:	8b 54 24 0c          	mov    0xc(%esp),%edx
    26a2:	89 4c 24 28          	mov    %ecx,0x28(%esp)
    26a6:	8b 4c 24 10          	mov    0x10(%esp),%ecx
    26aa:	f7 da                	neg    %edx
    26ac:	83 d1 00             	adc    $0x0,%ecx
    26af:	f7 d9                	neg    %ecx
    26b1:	89 4c 24 10          	mov    %ecx,0x10(%esp)
    26b5:	8b 4c 24 24          	mov    0x24(%esp),%ecx
    26b9:	89 54 24 0c          	mov    %edx,0xc(%esp)
    26bd:	21 d1                	and    %edx,%ecx
    26bf:	8b 54 24 28          	mov    0x28(%esp),%edx
    26c3:	23 54 24 10          	and    0x10(%esp),%edx
    26c7:	89 4c 24 18          	mov    %ecx,0x18(%esp)
    26cb:	89 54 24 1c          	mov    %edx,0x1c(%esp)
    26cf:	8b 54 24 18          	mov    0x18(%esp),%edx
    26d3:	8b 4c 24 1c          	mov    0x1c(%esp),%ecx
    26d7:	29 f2                	sub    %esi,%edx
    26d9:	19 f9                	sbb    %edi,%ecx
    26db:	89 d6                	mov    %edx,%esi
    26dd:	39 4c 24 04          	cmp    %ecx,0x4(%esp)
    26e1:	89 cf                	mov    %ecx,%edi
    26e3:	72 0e                	jb     26f3 <dm_merge_bvec+0xd3>
    26e5:	77 05                	ja     26ec <dm_merge_bvec+0xcc>
    26e7:	39 14 24             	cmp    %edx,(%esp)
    26ea:	76 07                	jbe    26f3 <dm_merge_bvec+0xd3>
    26ec:	89 34 24             	mov    %esi,(%esp)
    26ef:	89 7c 24 04          	mov    %edi,0x4(%esp)
    26f3:	8b 4c 24 04          	mov    0x4(%esp),%ecx
    26f7:	8b 14 24             	mov    (%esp),%edx
    26fa:	83 f9 00             	cmp    $0x0,%ecx
    26fd:	77 08                	ja     2707 <dm_merge_bvec+0xe7>
    26ff:	81 fa 00 08 00 00    	cmp    $0x800,%edx
    2705:	76 05                	jbe    270c <dm_merge_bvec+0xec>
    2707:	ba 00 08 00 00       	mov    $0x800,%edx
    270c:	c1 e2 09             	shl    $0x9,%edx
    270f:	2b 53 0c             	sub    0xc(%ebx),%edx
    2712:	83 fa 00             	cmp    $0x0,%edx
    2715:	7c 1a                	jl     2731 <dm_merge_bvec+0x111>
    2717:	74 1a                	je     2733 <dm_merge_bvec+0x113>
    2719:	8b 48 04             	mov    0x4(%eax),%ecx
    271c:	8b 71 54             	mov    0x54(%ecx),%esi
    271f:	85 f6                	test   %esi,%esi
    2721:	74 10                	je     2733 <dm_merge_bvec+0x113>
    2723:	52                   	push   %edx
    2724:	8b 4c 24 24          	mov    0x24(%esp),%ecx
    2728:	89 da                	mov    %ebx,%edx
    272a:	ff d6                	call   *%esi
    272c:	59                   	pop    %ecx
    272d:	89 c2                	mov    %eax,%edx
    272f:	eb 0d                	jmp    273e <dm_merge_bvec+0x11e>
    2731:	31 d2                	xor    %edx,%edx
    2733:	83 bd 5c 02 00 00 08 	cmpl   $0x8,0x25c(%ebp)
    273a:	77 02                	ja     273e <dm_merge_bvec+0x11e>
    273c:	31 d2                	xor    %edx,%edx
    273e:	8b 44 24 14          	mov    0x14(%esp),%eax
    2742:	89 54 24 08          	mov    %edx,0x8(%esp)
    2746:	e8 fc ff ff ff       	call   2747 <dm_merge_bvec+0x127>
			2747: R_386_PC32	dm_table_put
    274b:	8b 54 24 08          	mov    0x8(%esp),%edx
    274f:	8b 4c 24 20          	mov    0x20(%esp),%ecx
    2753:	8b 41 04             	mov    0x4(%ecx),%eax
    2756:	39 c2                	cmp    %eax,%edx
    2758:	77 09                	ja     2763 <dm_merge_bvec+0x143>
    275a:	8b 4b 0c             	mov    0xc(%ebx),%ecx
    275d:	c1 e9 09             	shr    $0x9,%ecx
    2760:	0f 44 d0             	cmove  %eax,%edx
    2763:	83 c4 2c             	add    $0x2c,%esp
    2766:	89 d0                	mov    %edx,%eax
    2768:	5b                   	pop    %ebx
    2769:	5e                   	pop    %esi
    276a:	5f                   	pop    %edi
    276b:	5d                   	pop    %ebp
    276c:	c3                   	ret    

0000276d <dm_any_congested>:
    276d:	56                   	push   %esi
    276e:	89 c6                	mov    %eax,%esi
    2770:	53                   	push   %ebx
    2771:	83 ec 04             	sub    $0x4,%esp
    2774:	f6 40 30 01          	testb  $0x1,0x30(%eax)
    2778:	75 39                	jne    27b3 <dm_any_congested+0x46>
    277a:	89 14 24             	mov    %edx,(%esp)
    277d:	e8 fc ff ff ff       	call   277e <dm_any_congested+0x11>
			277e: R_386_PC32	dm_get_table
    2782:	8b 14 24             	mov    (%esp),%edx
    2785:	85 c0                	test   %eax,%eax
    2787:	89 c3                	mov    %eax,%ebx
    2789:	74 28                	je     27b3 <dm_any_congested+0x46>
    278b:	8b 46 34             	mov    0x34(%esi),%eax
    278e:	f6 80 b1 01 00 00 20 	testb  $0x20,0x1b1(%eax)
    2795:	74 0a                	je     27a1 <dm_any_congested+0x34>
    2797:	8b b0 d0 00 00 00    	mov    0xd0(%eax),%esi
    279d:	21 d6                	and    %edx,%esi
    279f:	eb 09                	jmp    27aa <dm_any_congested+0x3d>
    27a1:	89 d8                	mov    %ebx,%eax
    27a3:	e8 fc ff ff ff       	call   27a4 <dm_any_congested+0x37>
			27a4: R_386_PC32	dm_table_any_congested
    27a8:	89 c6                	mov    %eax,%esi
    27aa:	89 d8                	mov    %ebx,%eax
    27ac:	e8 fc ff ff ff       	call   27ad <dm_any_congested+0x40>
			27ad: R_386_PC32	dm_table_put
    27b1:	eb 02                	jmp    27b5 <dm_any_congested+0x48>
    27b3:	89 d6                	mov    %edx,%esi
    27b5:	89 f0                	mov    %esi,%eax
    27b7:	5b                   	pop    %ebx
    27b8:	5b                   	pop    %ebx
    27b9:	5e                   	pop    %esi
    27ba:	c3                   	ret    

000027bb <dm_request_fn>:
    27bb:	55                   	push   %ebp
    27bc:	57                   	push   %edi
    27bd:	56                   	push   %esi
    27be:	53                   	push   %ebx
    27bf:	89 c3                	mov    %eax,%ebx
    27c1:	83 ec 10             	sub    $0x10,%esp
    27c4:	8b a8 a8 01 00 00    	mov    0x1a8(%eax),%ebp
    27ca:	89 e8                	mov    %ebp,%eax
    27cc:	e8 fc ff ff ff       	call   27cd <dm_request_fn+0x12>
			27cd: R_386_PC32	dm_get_table
    27d1:	8d 7d 28             	lea    0x28(%ebp),%edi
    27d4:	89 44 24 04          	mov    %eax,0x4(%esp)
    27d8:	8d 85 c8 00 00 00    	lea    0xc8(%ebp),%eax
    27de:	89 04 24             	mov    %eax,(%esp)
    27e1:	89 7c 24 08          	mov    %edi,0x8(%esp)
    27e5:	e9 08 01 00 00       	jmp    28f2 <dm_request_fn+0x137>
    27ea:	89 d8                	mov    %ebx,%eax
    27ec:	e8 fc ff ff ff       	call   27ed <dm_request_fn+0x32>
			27ed: R_386_PC32	blk_peek_request
    27f1:	85 c0                	test   %eax,%eax
    27f3:	89 c6                	mov    %eax,%esi
    27f5:	0f 84 0b 01 00 00    	je     2906 <dm_request_fn+0x14b>
    27fb:	3b 04 24             	cmp    (%esp),%eax
    27fe:	75 47                	jne    2847 <dm_request_fn+0x8c>
    2800:	8b 83 14 02 00 00    	mov    0x214(%ebx),%eax
    2806:	03 83 10 02 00 00    	add    0x210(%ebx),%eax
    280c:	85 c0                	test   %eax,%eax
    280e:	0f 85 f2 00 00 00    	jne    2906 <dm_request_fn+0x14b>
    2814:	89 d8                	mov    %ebx,%eax
    2816:	e8 fc ff ff ff       	call   2817 <dm_request_fn+0x5c>
			2817: R_386_PC32	blk_stop_queue
    281b:	8b 04 24             	mov    (%esp),%eax
    281e:	e8 fc ff ff ff       	call   281f <dm_request_fn+0x64>
			281f: R_386_PC32	blk_start_request
    2823:	31 d2                	xor    %edx,%edx
    2825:	8b 04 24             	mov    (%esp),%eax
    2828:	e8 fc ff ff ff       	call   2829 <dm_request_fn+0x6e>
			2829: R_386_PC32	__blk_end_request_all
    282d:	8d 45 58             	lea    0x58(%ebp),%eax
    2830:	b9 01 00 00 00       	mov    $0x1,%ecx
    2835:	ba 03 00 00 00       	mov    $0x3,%edx
    283a:	6a 00                	push   $0x0
    283c:	e8 fc ff ff ff       	call   283d <dm_request_fn+0x82>
			283d: R_386_PC32	__wake_up
    2841:	5d                   	pop    %ebp
    2842:	e9 d1 00 00 00       	jmp    2918 <dm_request_fn+0x15d>
    2847:	8b 50 30             	mov    0x30(%eax),%edx
    284a:	8b 48 34             	mov    0x34(%eax),%ecx
    284d:	8b 44 24 04          	mov    0x4(%esp),%eax
    2851:	e8 fc ff ff ff       	call   2852 <dm_request_fn+0x97>
			2852: R_386_PC32	dm_table_find_target
    2856:	89 c7                	mov    %eax,%edi
    2858:	8b 40 04             	mov    0x4(%eax),%eax
    285b:	8b 50 58             	mov    0x58(%eax),%edx
    285e:	85 d2                	test   %edx,%edx
    2860:	74 0c                	je     286e <dm_request_fn+0xb3>
    2862:	89 f8                	mov    %edi,%eax
    2864:	ff d2                	call   *%edx
    2866:	85 c0                	test   %eax,%eax
    2868:	0f 85 98 00 00 00    	jne    2906 <dm_request_fn+0x14b>
    286e:	89 f0                	mov    %esi,%eax
    2870:	e8 fc ff ff ff       	call   2871 <dm_request_fn+0xb6>
			2871: R_386_PC32	blk_start_request
    2875:	8b 83 b8 01 00 00    	mov    0x1b8(%ebx),%eax
    287b:	fe 00                	incb   (%eax)
    287d:	8b 76 6c             	mov    0x6c(%esi),%esi
    2880:	8b 44 24 08          	mov    0x8(%esp),%eax
    2884:	8b 8e c0 00 00 00    	mov    0xc0(%esi),%ecx
    288a:	f0 ff 00             	lock incl (%eax)
    288d:	89 79 04             	mov    %edi,0x4(%ecx)
    2890:	8b 47 04             	mov    0x4(%edi),%eax
    2893:	81 c1 d8 00 00 00    	add    $0xd8,%ecx
    2899:	89 f2                	mov    %esi,%edx
    289b:	89 44 24 0c          	mov    %eax,0xc(%esp)
    289f:	89 f8                	mov    %edi,%eax
    28a1:	8b 7c 24 0c          	mov    0xc(%esp),%edi
    28a5:	ff 57 28             	call   *0x28(%edi)
    28a8:	83 f8 01             	cmp    $0x1,%eax
    28ab:	74 0c                	je     28b9 <dm_request_fn+0xfe>
    28ad:	83 f8 02             	cmp    $0x2,%eax
    28b0:	74 10                	je     28c2 <dm_request_fn+0x107>
    28b2:	83 f8 00             	cmp    $0x0,%eax
    28b5:	74 30                	je     28e7 <dm_request_fn+0x12c>
    28b7:	eb 12                	jmp    28cb <dm_request_fn+0x110>
    28b9:	89 f0                	mov    %esi,%eax
    28bb:	e8 fc ff ff ff       	call   28bc <dm_request_fn+0x101>
			28bc: R_386_PC32	dm_dispatch_request
    28c0:	eb 25                	jmp    28e7 <dm_request_fn+0x12c>
    28c2:	89 f0                	mov    %esi,%eax
    28c4:	e8 fc ff ff ff       	call   28c5 <dm_request_fn+0x10a>
			28c5: R_386_PC32	dm_requeue_unmapped_request
    28c9:	eb 1c                	jmp    28e7 <dm_request_fn+0x12c>
    28cb:	7e 11                	jle    28de <dm_request_fn+0x123>
    28cd:	50                   	push   %eax
    28ce:	68 03 05 00 00       	push   $0x503
			28cf: R_386_32	.rodata.str1.1
    28d3:	e8 fc ff ff ff       	call   28d4 <dm_request_fn+0x119>
			28d4: R_386_PC32	printk
    28d8:	0f 0b                	ud2a   
    28da:	5e                   	pop    %esi
    28db:	5f                   	pop    %edi
    28dc:	eb fe                	jmp    28dc <dm_request_fn+0x121>
    28de:	89 c2                	mov    %eax,%edx
    28e0:	89 f0                	mov    %esi,%eax
    28e2:	e8 fc ff ff ff       	call   28e3 <dm_request_fn+0x128>
			28e3: R_386_PC32	dm_kill_unmapped_request
    28e7:	8b 83 b8 01 00 00    	mov    0x1b8(%ebx),%eax
    28ed:	e8 fc ff ff ff       	call   28ee <dm_request_fn+0x133>
			28ee: R_386_PC32	_spin_lock_irq
    28f2:	8b 83 b0 01 00 00    	mov    0x1b0(%ebx),%eax
    28f8:	84 c0                	test   %al,%al
    28fa:	78 1c                	js     2918 <dm_request_fn+0x15d>
    28fc:	a8 04                	test   $0x4,%al
    28fe:	0f 84 e6 fe ff ff    	je     27ea <dm_request_fn+0x2f>
    2904:	eb 12                	jmp    2918 <dm_request_fn+0x15d>
    2906:	89 d8                	mov    %ebx,%eax
    2908:	e8 fc ff ff ff       	call   2909 <dm_request_fn+0x14e>
			2909: R_386_PC32	elv_queue_empty
    290d:	85 c0                	test   %eax,%eax
    290f:	75 07                	jne    2918 <dm_request_fn+0x15d>
    2911:	89 d8                	mov    %ebx,%eax
    2913:	e8 fc ff ff ff       	call   2914 <dm_request_fn+0x159>
			2914: R_386_PC32	blk_plug_device
    2918:	8b 44 24 04          	mov    0x4(%esp),%eax
    291c:	83 c4 10             	add    $0x10,%esp
    291f:	5b                   	pop    %ebx
    2920:	5e                   	pop    %esi
    2921:	5f                   	pop    %edi
    2922:	5d                   	pop    %ebp
    2923:	e9 fc ff ff ff       	jmp    2924 <dm_request_fn+0x169>
			2924: R_386_PC32	dm_table_put

00002928 <dm_alloc_md_mempools>:
    2928:	55                   	push   %ebp
    2929:	ba d0 00 00 00       	mov    $0xd0,%edx
    292e:	57                   	push   %edi
    292f:	89 c7                	mov    %eax,%edi
    2931:	56                   	push   %esi
    2932:	b8 10 04 00 00       	mov    $0x410,%eax
			2933: R_386_32	kmalloc_caches
    2937:	53                   	push   %ebx
    2938:	e8 fc ff ff ff       	call   2939 <dm_alloc_md_mempools+0x11>
			2939: R_386_PC32	kmem_cache_alloc
    293d:	8b 2d 14 04 00 00    	mov    0x414,%ebp
			293f: R_386_32	kmalloc_caches
    2943:	83 3d 04 00 00 00 00 	cmpl   $0x0,0x4
			2945: R_386_32	__tracepoint_kmalloc
    294a:	89 c3                	mov    %eax,%ebx
    294c:	74 28                	je     2976 <dm_alloc_md_mempools+0x4e>
    294e:	8b 35 10 00 00 00    	mov    0x10,%esi
			2950: R_386_32	__tracepoint_kmalloc
    2954:	85 f6                	test   %esi,%esi
    2956:	74 1e                	je     2976 <dm_alloc_md_mempools+0x4e>
    2958:	68 d0 00 00 00       	push   $0xd0
    295d:	89 da                	mov    %ebx,%edx
    295f:	b8 28 29 00 00       	mov    $0x2928,%eax
			2960: R_386_32	.text
    2964:	b9 0c 00 00 00       	mov    $0xc,%ecx
    2969:	55                   	push   %ebp
    296a:	ff 16                	call   *(%esi)
    296c:	83 c6 04             	add    $0x4,%esi
    296f:	83 3e 00             	cmpl   $0x0,(%esi)
    2972:	58                   	pop    %eax
    2973:	5a                   	pop    %edx
    2974:	eb e0                	jmp    2956 <dm_alloc_md_mempools+0x2e>
    2976:	85 db                	test   %ebx,%ebx
    2978:	89 de                	mov    %ebx,%esi
    297a:	0f 84 94 00 00 00    	je     2a14 <dm_alloc_md_mempools+0xec>
    2980:	83 ff 01             	cmp    $0x1,%edi
    2983:	75 08                	jne    298d <dm_alloc_md_mempools+0x65>
    2985:	ff 35 24 00 00 00    	pushl  0x24
			2987: R_386_32	.bss
    298b:	eb 06                	jmp    2993 <dm_alloc_md_mempools+0x6b>
    298d:	ff 35 30 00 00 00    	pushl  0x30
			298f: R_386_32	.bss
    2993:	b9 00 00 00 00       	mov    $0x0,%ecx
			2994: R_386_32	mempool_free_slab
    2998:	ba 00 00 00 00       	mov    $0x0,%edx
			2999: R_386_32	mempool_alloc_slab
    299d:	b8 00 01 00 00       	mov    $0x100,%eax
    29a2:	e8 fc ff ff ff       	call   29a3 <dm_alloc_md_mempools+0x7b>
			29a3: R_386_PC32	mempool_create
    29a7:	59                   	pop    %ecx
    29a8:	85 c0                	test   %eax,%eax
    29aa:	89 03                	mov    %eax,(%ebx)
    29ac:	74 5d                	je     2a0b <dm_alloc_md_mempools+0xe3>
    29ae:	83 ff 01             	cmp    $0x1,%edi
    29b1:	75 08                	jne    29bb <dm_alloc_md_mempools+0x93>
    29b3:	ff 35 28 00 00 00    	pushl  0x28
			29b5: R_386_32	.bss
    29b9:	eb 06                	jmp    29c1 <dm_alloc_md_mempools+0x99>
    29bb:	ff 35 2c 00 00 00    	pushl  0x2c
			29bd: R_386_32	.bss
    29c1:	ba 00 00 00 00       	mov    $0x0,%edx
			29c2: R_386_32	mempool_alloc_slab
    29c6:	b9 00 00 00 00       	mov    $0x0,%ecx
			29c7: R_386_32	mempool_free_slab
    29cb:	b8 00 01 00 00       	mov    $0x100,%eax
    29d0:	e8 fc ff ff ff       	call   29d1 <dm_alloc_md_mempools+0xa9>
			29d1: R_386_PC32	mempool_create
    29d5:	5a                   	pop    %edx
    29d6:	85 c0                	test   %eax,%eax
    29d8:	89 43 04             	mov    %eax,0x4(%ebx)
    29db:	74 27                	je     2a04 <dm_alloc_md_mempools+0xdc>
    29dd:	4f                   	dec    %edi
    29de:	75 09                	jne    29e9 <dm_alloc_md_mempools+0xc1>
    29e0:	31 d2                	xor    %edx,%edx
    29e2:	b8 10 00 00 00       	mov    $0x10,%eax
    29e7:	eb 07                	jmp    29f0 <dm_alloc_md_mempools+0xc8>
    29e9:	31 d2                	xor    %edx,%edx
    29eb:	b8 00 01 00 00       	mov    $0x100,%eax
    29f0:	e8 fc ff ff ff       	call   29f1 <dm_alloc_md_mempools+0xc9>
			29f1: R_386_PC32	bioset_create
    29f5:	85 c0                	test   %eax,%eax
    29f7:	89 43 08             	mov    %eax,0x8(%ebx)
    29fa:	75 18                	jne    2a14 <dm_alloc_md_mempools+0xec>
    29fc:	8b 43 04             	mov    0x4(%ebx),%eax
    29ff:	e8 fc ff ff ff       	call   2a00 <dm_alloc_md_mempools+0xd8>
			2a00: R_386_PC32	mempool_destroy
    2a04:	8b 03                	mov    (%ebx),%eax
    2a06:	e8 fc ff ff ff       	call   2a07 <dm_alloc_md_mempools+0xdf>
			2a07: R_386_PC32	mempool_destroy
    2a0b:	89 d8                	mov    %ebx,%eax
    2a0d:	31 f6                	xor    %esi,%esi
    2a0f:	e8 fc ff ff ff       	call   2a10 <dm_alloc_md_mempools+0xe8>
			2a10: R_386_PC32	kfree
    2a14:	89 f0                	mov    %esi,%eax
    2a16:	5b                   	pop    %ebx
    2a17:	5e                   	pop    %esi
    2a18:	5f                   	pop    %edi
    2a19:	5d                   	pop    %ebp
    2a1a:	c3                   	ret    
    2a1b:	90                   	nop

00002a1c <dm_table_get>:
    2a1c:	f0 ff 40 04          	lock incl 0x4(%eax)
    2a20:	c3                   	ret    

00002a21 <dm_table_put>:
    2a21:	85 c0                	test   %eax,%eax
    2a23:	74 04                	je     2a29 <dm_table_put+0x8>
    2a25:	f0 ff 48 04          	lock decl 0x4(%eax)
    2a29:	c3                   	ret    

00002a2a <dm_table_get_type>:
    2a2a:	8b 40 08             	mov    0x8(%eax),%eax
    2a2d:	c3                   	ret    

00002a2e <dm_table_request_based>:
    2a2e:	83 78 08 02          	cmpl   $0x2,0x8(%eax)
    2a32:	0f 94 c0             	sete   %al
    2a35:	c3                   	ret    

00002a36 <dm_table_get_md_mempools>:
    2a36:	8b 80 b4 00 00 00    	mov    0xb4(%eax),%eax
    2a3c:	c3                   	ret    

00002a3d <dm_table_get_size>:
    2a3d:	55                   	push   %ebp
    2a3e:	31 d2                	xor    %edx,%edx
    2a40:	89 e5                	mov    %esp,%ebp
    2a42:	57                   	push   %edi
    2a43:	53                   	push   %ebx
    2a44:	8b 88 90 00 00 00    	mov    0x90(%eax),%ecx
    2a4a:	89 c3                	mov    %eax,%ebx
    2a4c:	31 c0                	xor    %eax,%eax
    2a4e:	85 c9                	test   %ecx,%ecx
    2a50:	74 14                	je     2a66 <dm_table_get_size+0x29>
    2a52:	8b 83 98 00 00 00    	mov    0x98(%ebx),%eax
    2a58:	8b 54 c8 fc          	mov    -0x4(%eax,%ecx,8),%edx
    2a5c:	8b 44 c8 f8          	mov    -0x8(%eax,%ecx,8),%eax
    2a60:	83 c0 01             	add    $0x1,%eax
    2a63:	83 d2 00             	adc    $0x0,%edx
    2a66:	5b                   	pop    %ebx
    2a67:	5f                   	pop    %edi
    2a68:	5d                   	pop    %ebp
    2a69:	c3                   	ret    

00002a6a <dm_table_get_target>:
    2a6a:	31 c9                	xor    %ecx,%ecx
    2a6c:	3b 90 90 00 00 00    	cmp    0x90(%eax),%edx
    2a72:	73 09                	jae    2a7d <dm_table_get_target+0x13>
    2a74:	6b ca 2c             	imul   $0x2c,%edx,%ecx
    2a77:	03 88 9c 00 00 00    	add    0x9c(%eax),%ecx
    2a7d:	89 c8                	mov    %ecx,%eax
    2a7f:	c3                   	ret    

00002a80 <dm_table_find_target>:
    2a80:	55                   	push   %ebp
    2a81:	57                   	push   %edi
    2a82:	31 ff                	xor    %edi,%edi
    2a84:	56                   	push   %esi
    2a85:	31 f6                	xor    %esi,%esi
    2a87:	53                   	push   %ebx
    2a88:	83 ec 04             	sub    $0x4,%esp
    2a8b:	8b 58 0c             	mov    0xc(%eax),%ebx
    2a8e:	89 1c 24             	mov    %ebx,(%esp)
    2a91:	31 db                	xor    %ebx,%ebx
    2a93:	eb 25                	jmp    2aba <dm_table_find_target+0x3a>
    2a95:	8d 34 b6             	lea    (%esi,%esi,4),%esi
    2a98:	01 de                	add    %ebx,%esi
    2a9a:	31 db                	xor    %ebx,%ebx
    2a9c:	89 f5                	mov    %esi,%ebp
    2a9e:	c1 e5 05             	shl    $0x5,%ebp
    2aa1:	03 6c b8 50          	add    0x50(%eax,%edi,4),%ebp
    2aa5:	39 4c dd 04          	cmp    %ecx,0x4(%ebp,%ebx,8)
    2aa9:	77 0e                	ja     2ab9 <dm_table_find_target+0x39>
    2aab:	72 06                	jb     2ab3 <dm_table_find_target+0x33>
    2aad:	39 54 dd 00          	cmp    %edx,0x0(%ebp,%ebx,8)
    2ab1:	73 06                	jae    2ab9 <dm_table_find_target+0x39>
    2ab3:	43                   	inc    %ebx
    2ab4:	83 fb 04             	cmp    $0x4,%ebx
    2ab7:	75 ec                	jne    2aa5 <dm_table_find_target+0x25>
    2ab9:	47                   	inc    %edi
    2aba:	3b 3c 24             	cmp    (%esp),%edi
    2abd:	75 d6                	jne    2a95 <dm_table_find_target+0x15>
    2abf:	8d 14 b3             	lea    (%ebx,%esi,4),%edx
    2ac2:	6b d2 2c             	imul   $0x2c,%edx,%edx
    2ac5:	03 90 9c 00 00 00    	add    0x9c(%eax),%edx
    2acb:	89 d0                	mov    %edx,%eax
    2acd:	5a                   	pop    %edx
    2ace:	5b                   	pop    %ebx
    2acf:	5e                   	pop    %esi
    2ad0:	5f                   	pop    %edi
    2ad1:	5d                   	pop    %ebp
    2ad2:	c3                   	ret    

00002ad3 <dm_table_get_num_targets>:
    2ad3:	8b 80 90 00 00 00    	mov    0x90(%eax),%eax
    2ad9:	c3                   	ret    

00002ada <dm_table_get_devices>:
    2ada:	05 a4 00 00 00       	add    $0xa4,%eax
    2adf:	c3                   	ret    

00002ae0 <dm_table_get_mode>:
    2ae0:	8b 80 a0 00 00 00    	mov    0xa0(%eax),%eax
    2ae6:	c3                   	ret    

00002ae7 <suspend_targets>:
    2ae7:	57                   	push   %edi
    2ae8:	89 d7                	mov    %edx,%edi
    2aea:	56                   	push   %esi
    2aeb:	53                   	push   %ebx
    2aec:	8b b0 90 00 00 00    	mov    0x90(%eax),%esi
    2af2:	8b 98 9c 00 00 00    	mov    0x9c(%eax),%ebx
    2af8:	eb 23                	jmp    2b1d <suspend_targets+0x36>
    2afa:	85 ff                	test   %edi,%edi
    2afc:	8b 43 04             	mov    0x4(%ebx),%eax
    2aff:	74 0d                	je     2b0e <suspend_targets+0x27>
    2b01:	8b 50 3c             	mov    0x3c(%eax),%edx
    2b04:	85 d2                	test   %edx,%edx
    2b06:	74 11                	je     2b19 <suspend_targets+0x32>
    2b08:	89 d8                	mov    %ebx,%eax
    2b0a:	ff d2                	call   *%edx
    2b0c:	eb 0b                	jmp    2b19 <suspend_targets+0x32>
    2b0e:	8b 48 38             	mov    0x38(%eax),%ecx
    2b11:	85 c9                	test   %ecx,%ecx
    2b13:	74 04                	je     2b19 <suspend_targets+0x32>
    2b15:	89 d8                	mov    %ebx,%eax
    2b17:	ff d1                	call   *%ecx
    2b19:	83 c3 2c             	add    $0x2c,%ebx
    2b1c:	4e                   	dec    %esi
    2b1d:	85 f6                	test   %esi,%esi
    2b1f:	75 d9                	jne    2afa <suspend_targets+0x13>
    2b21:	5b                   	pop    %ebx
    2b22:	5e                   	pop    %esi
    2b23:	5f                   	pop    %edi
    2b24:	c3                   	ret    

00002b25 <dm_table_presuspend_targets>:
    2b25:	85 c0                	test   %eax,%eax
    2b27:	74 04                	je     2b2d <dm_table_presuspend_targets+0x8>
    2b29:	31 d2                	xor    %edx,%edx
    2b2b:	eb ba                	jmp    2ae7 <suspend_targets>
    2b2d:	c3                   	ret    

00002b2e <dm_table_postsuspend_targets>:
    2b2e:	85 c0                	test   %eax,%eax
    2b30:	74 07                	je     2b39 <dm_table_postsuspend_targets+0xb>
    2b32:	ba 01 00 00 00       	mov    $0x1,%edx
    2b37:	eb ae                	jmp    2ae7 <suspend_targets>
    2b39:	c3                   	ret    

00002b3a <dm_table_resume_targets>:
    2b3a:	56                   	push   %esi
    2b3b:	89 c6                	mov    %eax,%esi
    2b3d:	53                   	push   %ebx
    2b3e:	31 db                	xor    %ebx,%ebx
    2b40:	eb 1a                	jmp    2b5c <dm_table_resume_targets+0x22>
    2b42:	6b c3 2c             	imul   $0x2c,%ebx,%eax
    2b45:	03 86 9c 00 00 00    	add    0x9c(%esi),%eax
    2b4b:	8b 50 04             	mov    0x4(%eax),%edx
    2b4e:	8b 52 40             	mov    0x40(%edx),%edx
    2b51:	85 d2                	test   %edx,%edx
    2b53:	74 06                	je     2b5b <dm_table_resume_targets+0x21>
    2b55:	ff d2                	call   *%edx
    2b57:	85 c0                	test   %eax,%eax
    2b59:	75 2d                	jne    2b88 <dm_table_resume_targets+0x4e>
    2b5b:	43                   	inc    %ebx
    2b5c:	3b 9e 90 00 00 00    	cmp    0x90(%esi),%ebx
    2b62:	72 de                	jb     2b42 <dm_table_resume_targets+0x8>
    2b64:	31 db                	xor    %ebx,%ebx
    2b66:	eb 16                	jmp    2b7e <dm_table_resume_targets+0x44>
    2b68:	6b c3 2c             	imul   $0x2c,%ebx,%eax
    2b6b:	03 86 9c 00 00 00    	add    0x9c(%esi),%eax
    2b71:	8b 50 04             	mov    0x4(%eax),%edx
    2b74:	8b 52 44             	mov    0x44(%edx),%edx
    2b77:	85 d2                	test   %edx,%edx
    2b79:	74 02                	je     2b7d <dm_table_resume_targets+0x43>
    2b7b:	ff d2                	call   *%edx
    2b7d:	43                   	inc    %ebx
    2b7e:	3b 9e 90 00 00 00    	cmp    0x90(%esi),%ebx
    2b84:	72 e2                	jb     2b68 <dm_table_resume_targets+0x2e>
    2b86:	31 c0                	xor    %eax,%eax
    2b88:	5b                   	pop    %ebx
    2b89:	5e                   	pop    %esi
    2b8a:	c3                   	ret    

00002b8b <dm_table_any_busy_target>:
    2b8b:	56                   	push   %esi
    2b8c:	89 c6                	mov    %eax,%esi
    2b8e:	53                   	push   %ebx
    2b8f:	31 db                	xor    %ebx,%ebx
    2b91:	eb 21                	jmp    2bb4 <dm_table_any_busy_target+0x29>
    2b93:	6b c3 2c             	imul   $0x2c,%ebx,%eax
    2b96:	03 86 9c 00 00 00    	add    0x9c(%esi),%eax
    2b9c:	8b 50 04             	mov    0x4(%eax),%edx
    2b9f:	8b 52 58             	mov    0x58(%edx),%edx
    2ba2:	85 d2                	test   %edx,%edx
    2ba4:	74 0d                	je     2bb3 <dm_table_any_busy_target+0x28>
    2ba6:	ff d2                	call   *%edx
    2ba8:	85 c0                	test   %eax,%eax
    2baa:	74 07                	je     2bb3 <dm_table_any_busy_target+0x28>
    2bac:	b8 01 00 00 00       	mov    $0x1,%eax
    2bb1:	eb 0b                	jmp    2bbe <dm_table_any_busy_target+0x33>
    2bb3:	43                   	inc    %ebx
    2bb4:	3b 9e 90 00 00 00    	cmp    0x90(%esi),%ebx
    2bba:	72 d7                	jb     2b93 <dm_table_any_busy_target+0x8>
    2bbc:	31 c0                	xor    %eax,%eax
    2bbe:	5b                   	pop    %ebx
    2bbf:	5e                   	pop    %esi
    2bc0:	c3                   	ret    

00002bc1 <dm_table_get_md>:
    2bc1:	53                   	push   %ebx
    2bc2:	89 c3                	mov    %eax,%ebx
    2bc4:	8b 00                	mov    (%eax),%eax
    2bc6:	e8 fc ff ff ff       	call   2bc7 <dm_table_get_md+0x6>
			2bc7: R_386_PC32	dm_get
    2bcb:	8b 03                	mov    (%ebx),%eax
    2bcd:	5b                   	pop    %ebx
    2bce:	c3                   	ret    

00002bcf <trace_kmalloc>:
    2bcf:	55                   	push   %ebp
    2bd0:	89 c5                	mov    %eax,%ebp
    2bd2:	83 3d 04 00 00 00 00 	cmpl   $0x0,0x4
			2bd4: R_386_32	__tracepoint_kmalloc
    2bd9:	57                   	push   %edi
    2bda:	89 d7                	mov    %edx,%edi
    2bdc:	56                   	push   %esi
    2bdd:	89 ce                	mov    %ecx,%esi
    2bdf:	53                   	push   %ebx
    2be0:	74 24                	je     2c06 <trace_kmalloc+0x37>
    2be2:	8b 1d 10 00 00 00    	mov    0x10,%ebx
			2be4: R_386_32	__tracepoint_kmalloc
    2be8:	85 db                	test   %ebx,%ebx
    2bea:	74 1a                	je     2c06 <trace_kmalloc+0x37>
    2bec:	ff 74 24 18          	pushl  0x18(%esp)
    2bf0:	89 f1                	mov    %esi,%ecx
    2bf2:	ff 74 24 18          	pushl  0x18(%esp)
    2bf6:	89 e8                	mov    %ebp,%eax
    2bf8:	89 fa                	mov    %edi,%edx
    2bfa:	ff 13                	call   *(%ebx)
    2bfc:	83 c3 04             	add    $0x4,%ebx
    2bff:	83 3b 00             	cmpl   $0x0,(%ebx)
    2c02:	59                   	pop    %ecx
    2c03:	58                   	pop    %eax
    2c04:	eb e4                	jmp    2bea <trace_kmalloc+0x1b>
    2c06:	5b                   	pop    %ebx
    2c07:	5e                   	pop    %esi
    2c08:	5f                   	pop    %edi
    2c09:	5d                   	pop    %ebp
    2c0a:	c3                   	ret    

00002c0b <dm_table_unplug_all>:
    2c0b:	55                   	push   %ebp
    2c0c:	57                   	push   %edi
    2c0d:	56                   	push   %esi
    2c0e:	89 c6                	mov    %eax,%esi
    2c10:	53                   	push   %ebx
    2c11:	83 ec 28             	sub    $0x28,%esp
    2c14:	8b 9e a4 00 00 00    	mov    0xa4(%esi),%ebx
    2c1a:	65 a1 14 00 00 00    	mov    %gs:0x14,%eax
    2c20:	89 44 24 24          	mov    %eax,0x24(%esp)
    2c24:	31 c0                	xor    %eax,%eax
    2c26:	8d be a4 00 00 00    	lea    0xa4(%esi),%edi
    2c2c:	8d 6c 24 04          	lea    0x4(%esp),%ebp
    2c30:	eb 4a                	jmp    2c7c <dm_table_unplug_all+0x71>
    2c32:	8b 43 0c             	mov    0xc(%ebx),%eax
    2c35:	8b 40 50             	mov    0x50(%eax),%eax
    2c38:	8b 80 94 01 00 00    	mov    0x194(%eax),%eax
    2c3e:	85 c0                	test   %eax,%eax
    2c40:	74 07                	je     2c49 <dm_table_unplug_all+0x3e>
    2c42:	e8 fc ff ff ff       	call   2c43 <dm_table_unplug_all+0x38>
			2c43: R_386_PC32	blk_unplug
    2c47:	eb 31                	jmp    2c7a <dm_table_unplug_all+0x6f>
    2c49:	e8 fc ff ff ff       	call   2c4a <dm_table_unplug_all+0x3f>
			2c4a: R_386_PC32	printk_ratelimit
    2c4e:	85 c0                	test   %eax,%eax
    2c50:	74 28                	je     2c7a <dm_table_unplug_all+0x6f>
    2c52:	8b 43 0c             	mov    0xc(%ebx),%eax
    2c55:	89 ea                	mov    %ebp,%edx
    2c57:	e8 fc ff ff ff       	call   2c58 <dm_table_unplug_all+0x4d>
			2c58: R_386_PC32	bdevname
    2c5c:	89 c2                	mov    %eax,%edx
    2c5e:	8b 06                	mov    (%esi),%eax
    2c60:	89 14 24             	mov    %edx,(%esp)
    2c63:	e8 fc ff ff ff       	call   2c64 <dm_table_unplug_all+0x59>
			2c64: R_386_PC32	dm_device_name
    2c68:	8b 14 24             	mov    (%esp),%edx
    2c6b:	52                   	push   %edx
    2c6c:	50                   	push   %eax
    2c6d:	68 92 06 00 00       	push   $0x692
			2c6e: R_386_32	.rodata.str1.1
    2c72:	e8 fc ff ff ff       	call   2c73 <dm_table_unplug_all+0x68>
			2c73: R_386_PC32	printk
    2c77:	83 c4 0c             	add    $0xc,%esp
    2c7a:	8b 1b                	mov    (%ebx),%ebx
    2c7c:	8b 03                	mov    (%ebx),%eax
    2c7e:	8d 74 26 00          	lea    0x0(%esi,%eiz,1),%esi
    2c82:	39 fb                	cmp    %edi,%ebx
    2c84:	75 ac                	jne    2c32 <dm_table_unplug_all+0x27>
    2c86:	8b 44 24 24          	mov    0x24(%esp),%eax
    2c8a:	65 33 05 14 00 00 00 	xor    %gs:0x14,%eax
    2c91:	74 05                	je     2c98 <dm_table_unplug_all+0x8d>
    2c93:	e8 fc ff ff ff       	call   2c94 <dm_table_unplug_all+0x89>
			2c94: R_386_PC32	__stack_chk_fail
    2c98:	83 c4 28             	add    $0x28,%esp
    2c9b:	5b                   	pop    %ebx
    2c9c:	5e                   	pop    %esi
    2c9d:	5f                   	pop    %edi
    2c9e:	5d                   	pop    %ebp
    2c9f:	c3                   	ret    

00002ca0 <dm_table_any_congested>:
    2ca0:	55                   	push   %ebp
    2ca1:	89 d5                	mov    %edx,%ebp
    2ca3:	57                   	push   %edi
    2ca4:	31 ff                	xor    %edi,%edi
    2ca6:	56                   	push   %esi
    2ca7:	89 c6                	mov    %eax,%esi
    2ca9:	53                   	push   %ebx
    2caa:	83 ec 2c             	sub    $0x2c,%esp
    2cad:	8b 9e a4 00 00 00    	mov    0xa4(%esi),%ebx
    2cb3:	8d 96 a4 00 00 00    	lea    0xa4(%esi),%edx
    2cb9:	65 a1 14 00 00 00    	mov    %gs:0x14,%eax
    2cbf:	89 44 24 28          	mov    %eax,0x28(%esp)
    2cc3:	31 c0                	xor    %eax,%eax
    2cc5:	89 54 24 04          	mov    %edx,0x4(%esp)
    2cc9:	eb 67                	jmp    2d32 <dm_table_any_congested+0x92>
    2ccb:	8b 43 0c             	mov    0xc(%ebx),%eax
    2cce:	8b 40 50             	mov    0x50(%eax),%eax
    2cd1:	8b 80 94 01 00 00    	mov    0x194(%eax),%eax
    2cd7:	85 c0                	test   %eax,%eax
    2cd9:	74 22                	je     2cfd <dm_table_any_congested+0x5d>
    2cdb:	8b 88 d8 00 00 00    	mov    0xd8(%eax),%ecx
    2ce1:	85 c9                	test   %ecx,%ecx
    2ce3:	74 0c                	je     2cf1 <dm_table_any_congested+0x51>
    2ce5:	8b 80 dc 00 00 00    	mov    0xdc(%eax),%eax
    2ceb:	89 ea                	mov    %ebp,%edx
    2ced:	ff d1                	call   *%ecx
    2cef:	eb 08                	jmp    2cf9 <dm_table_any_congested+0x59>
    2cf1:	8b 80 d0 00 00 00    	mov    0xd0(%eax),%eax
    2cf7:	21 e8                	and    %ebp,%eax
    2cf9:	09 c7                	or     %eax,%edi
    2cfb:	eb 33                	jmp    2d30 <dm_table_any_congested+0x90>
    2cfd:	e8 fc ff ff ff       	call   2cfe <dm_table_any_congested+0x5e>
			2cfe: R_386_PC32	printk_ratelimit
    2d02:	85 c0                	test   %eax,%eax
    2d04:	74 2a                	je     2d30 <dm_table_any_congested+0x90>
    2d06:	8b 43 0c             	mov    0xc(%ebx),%eax
    2d09:	8d 54 24 08          	lea    0x8(%esp),%edx
    2d0d:	e8 fc ff ff ff       	call   2d0e <dm_table_any_congested+0x6e>
			2d0e: R_386_PC32	bdevname
    2d12:	89 c2                	mov    %eax,%edx
    2d14:	8b 06                	mov    (%esi),%eax
    2d16:	89 14 24             	mov    %edx,(%esp)
    2d19:	e8 fc ff ff ff       	call   2d1a <dm_table_any_congested+0x7a>
			2d1a: R_386_PC32	dm_device_name
    2d1e:	8b 14 24             	mov    (%esp),%edx
    2d21:	52                   	push   %edx
    2d22:	50                   	push   %eax
    2d23:	68 d4 06 00 00       	push   $0x6d4
			2d24: R_386_32	.rodata.str1.1
    2d28:	e8 fc ff ff ff       	call   2d29 <dm_table_any_congested+0x89>
			2d29: R_386_PC32	printk
    2d2d:	83 c4 0c             	add    $0xc,%esp
    2d30:	8b 1b                	mov    (%ebx),%ebx
    2d32:	8b 03                	mov    (%ebx),%eax
    2d34:	8d 74 26 00          	lea    0x0(%esi,%eiz,1),%esi
    2d38:	3b 5c 24 04          	cmp    0x4(%esp),%ebx
    2d3c:	75 8d                	jne    2ccb <dm_table_any_congested+0x2b>
    2d3e:	8b 54 24 28          	mov    0x28(%esp),%edx
    2d42:	65 33 15 14 00 00 00 	xor    %gs:0x14,%edx
    2d49:	89 f8                	mov    %edi,%eax
    2d4b:	74 05                	je     2d52 <dm_table_any_congested+0xb2>
    2d4d:	e8 fc ff ff ff       	call   2d4e <dm_table_any_congested+0xae>
			2d4e: R_386_PC32	__stack_chk_fail
    2d52:	83 c4 2c             	add    $0x2c,%esp
    2d55:	5b                   	pop    %ebx
    2d56:	5e                   	pop    %esi
    2d57:	5f                   	pop    %edi
    2d58:	5d                   	pop    %ebp
    2d59:	c3                   	ret    

00002d5a <device_area_is_invalid>:
    2d5a:	55                   	push   %ebp
    2d5b:	57                   	push   %edi
    2d5c:	56                   	push   %esi
    2d5d:	53                   	push   %ebx
    2d5e:	83 ec 3c             	sub    $0x3c,%esp
    2d61:	89 44 24 14          	mov    %eax,0x14(%esp)
    2d65:	8b 44 24 60          	mov    0x60(%esp),%eax
    2d69:	65 8b 0d 14 00 00 00 	mov    %gs:0x14,%ecx
    2d70:	89 4c 24 38          	mov    %ecx,0x38(%esp)
    2d74:	31 c9                	xor    %ecx,%ecx
    2d76:	8b 5c 24 50          	mov    0x50(%esp),%ebx
    2d7a:	8b 74 24 54          	mov    0x54(%esp),%esi
    2d7e:	89 04 24             	mov    %eax,(%esp)
    2d81:	8b 02                	mov    (%edx),%eax
    2d83:	8b 0c 24             	mov    (%esp),%ecx
    2d86:	8b 50 04             	mov    0x4(%eax),%edx
    2d89:	8b 7a 48             	mov    0x48(%edx),%edi
    2d8c:	89 7c 24 04          	mov    %edi,0x4(%esp)
    2d90:	83 e7 01             	and    $0x1,%edi
    2d93:	74 04                	je     2d99 <device_area_is_invalid+0x3f>
    2d95:	f3 90                	pause  
    2d97:	eb f0                	jmp    2d89 <device_area_is_invalid+0x2f>
    2d99:	8b 7a 40             	mov    0x40(%edx),%edi
    2d9c:	8b 6a 44             	mov    0x44(%edx),%ebp
    2d9f:	89 7c 24 0c          	mov    %edi,0xc(%esp)
    2da3:	89 6c 24 10          	mov    %ebp,0x10(%esp)
    2da7:	8b 6c 24 04          	mov    0x4(%esp),%ebp
    2dab:	39 6a 48             	cmp    %ebp,0x48(%edx)
    2dae:	75 d9                	jne    2d89 <device_area_is_invalid+0x2f>
    2db0:	8b 6c 24 10          	mov    0x10(%esp),%ebp
    2db4:	8b 7c 24 0c          	mov    0xc(%esp),%edi
    2db8:	89 0c 24             	mov    %ecx,(%esp)
    2dbb:	8b 51 28             	mov    0x28(%ecx),%edx
    2dbe:	0f ac ef 09          	shrd   $0x9,%ebp,%edi
    2dc2:	c1 fd 09             	sar    $0x9,%ebp
    2dc5:	89 e9                	mov    %ebp,%ecx
    2dc7:	09 f9                	or     %edi,%ecx
    2dc9:	66 89 54 24 04       	mov    %dx,0x4(%esp)
    2dce:	0f 84 0e 01 00 00    	je     2ee2 <device_area_is_invalid+0x188>
    2dd4:	39 ee                	cmp    %ebp,%esi
    2dd6:	77 24                	ja     2dfc <device_area_is_invalid+0xa2>
    2dd8:	72 04                	jb     2dde <device_area_is_invalid+0x84>
    2dda:	39 fb                	cmp    %edi,%ebx
    2ddc:	73 1e                	jae    2dfc <device_area_is_invalid+0xa2>
    2dde:	8b 54 24 58          	mov    0x58(%esp),%edx
    2de2:	8b 4c 24 5c          	mov    0x5c(%esp),%ecx
    2de6:	01 da                	add    %ebx,%edx
    2de8:	11 f1                	adc    %esi,%ecx
    2dea:	39 e9                	cmp    %ebp,%ecx
    2dec:	89 54 24 0c          	mov    %edx,0xc(%esp)
    2df0:	89 4c 24 10          	mov    %ecx,0x10(%esp)
    2df4:	72 4b                	jb     2e41 <device_area_is_invalid+0xe7>
    2df6:	77 04                	ja     2dfc <device_area_is_invalid+0xa2>
    2df8:	39 fa                	cmp    %edi,%edx
    2dfa:	76 45                	jbe    2e41 <device_area_is_invalid+0xe7>
    2dfc:	8d 54 24 18          	lea    0x18(%esp),%edx
    2e00:	e8 fc ff ff ff       	call   2e01 <device_area_is_invalid+0xa7>
			2e01: R_386_PC32	bdevname
    2e05:	8b 4c 24 14          	mov    0x14(%esp),%ecx
    2e09:	89 c2                	mov    %eax,%edx
    2e0b:	8b 01                	mov    (%ecx),%eax
    2e0d:	8b 00                	mov    (%eax),%eax
    2e0f:	89 54 24 08          	mov    %edx,0x8(%esp)
    2e13:	e8 fc ff ff ff       	call   2e14 <device_area_is_invalid+0xba>
			2e14: R_386_PC32	dm_device_name
    2e18:	55                   	push   %ebp
    2e19:	57                   	push   %edi
    2e1a:	ff 74 24 64          	pushl  0x64(%esp)
    2e1e:	ff 74 24 64          	pushl  0x64(%esp)
    2e22:	56                   	push   %esi
    2e23:	53                   	push   %ebx
    2e24:	8b 54 24 20          	mov    0x20(%esp),%edx
    2e28:	52                   	push   %edx
    2e29:	50                   	push   %eax
    2e2a:	68 17 07 00 00       	push   $0x717
			2e2b: R_386_32	.rodata.str1.1
    2e2f:	e8 fc ff ff ff       	call   2e30 <device_area_is_invalid+0xd6>
			2e30: R_386_PC32	printk
    2e34:	b8 01 00 00 00       	mov    $0x1,%eax
    2e39:	83 c4 24             	add    $0x24,%esp
    2e3c:	e9 a3 00 00 00       	jmp    2ee4 <device_area_is_invalid+0x18a>
    2e41:	8b 7c 24 04          	mov    0x4(%esp),%edi
    2e45:	66 c1 ef 09          	shr    $0x9,%di
    2e49:	66 83 ff 01          	cmp    $0x1,%di
    2e4d:	0f 86 8f 00 00 00    	jbe    2ee2 <device_area_is_invalid+0x188>
    2e53:	0f b7 ff             	movzwl %di,%edi
    2e56:	4f                   	dec    %edi
    2e57:	89 fd                	mov    %edi,%ebp
    2e59:	89 f9                	mov    %edi,%ecx
    2e5b:	c1 fd 1f             	sar    $0x1f,%ebp
    2e5e:	21 d9                	and    %ebx,%ecx
    2e60:	89 ea                	mov    %ebp,%edx
    2e62:	21 f2                	and    %esi,%edx
    2e64:	09 ca                	or     %ecx,%edx
    2e66:	74 2b                	je     2e93 <device_area_is_invalid+0x139>
    2e68:	8d 54 24 18          	lea    0x18(%esp),%edx
    2e6c:	e8 fc ff ff ff       	call   2e6d <device_area_is_invalid+0x113>
			2e6d: R_386_PC32	bdevname
    2e71:	8b 54 24 14          	mov    0x14(%esp),%edx
    2e75:	89 c7                	mov    %eax,%edi
    2e77:	8b 04 24             	mov    (%esp),%eax
    2e7a:	0f b7 68 28          	movzwl 0x28(%eax),%ebp
    2e7e:	8b 02                	mov    (%edx),%eax
    2e80:	8b 00                	mov    (%eax),%eax
    2e82:	e8 fc ff ff ff       	call   2e83 <device_area_is_invalid+0x129>
			2e83: R_386_PC32	dm_device_name
    2e87:	57                   	push   %edi
    2e88:	55                   	push   %ebp
    2e89:	56                   	push   %esi
    2e8a:	53                   	push   %ebx
    2e8b:	50                   	push   %eax
    2e8c:	68 72 07 00 00       	push   $0x772
			2e8d: R_386_32	.rodata.str1.1
    2e91:	eb 40                	jmp    2ed3 <device_area_is_invalid+0x179>
    2e93:	8b 54 24 58          	mov    0x58(%esp),%edx
    2e97:	8b 5c 24 5c          	mov    0x5c(%esp),%ebx
    2e9b:	21 fa                	and    %edi,%edx
    2e9d:	21 eb                	and    %ebp,%ebx
    2e9f:	09 d3                	or     %edx,%ebx
    2ea1:	74 3f                	je     2ee2 <device_area_is_invalid+0x188>
    2ea3:	8d 54 24 18          	lea    0x18(%esp),%edx
    2ea7:	e8 fc ff ff ff       	call   2ea8 <device_area_is_invalid+0x14e>
			2ea8: R_386_PC32	bdevname
    2eac:	8b 6c 24 14          	mov    0x14(%esp),%ebp
    2eb0:	8b 0c 24             	mov    (%esp),%ecx
    2eb3:	89 c3                	mov    %eax,%ebx
    2eb5:	8b 45 00             	mov    0x0(%ebp),%eax
    2eb8:	0f b7 79 28          	movzwl 0x28(%ecx),%edi
    2ebc:	8b 00                	mov    (%eax),%eax
    2ebe:	e8 fc ff ff ff       	call   2ebf <device_area_is_invalid+0x165>
			2ebf: R_386_PC32	dm_device_name
    2ec3:	53                   	push   %ebx
    2ec4:	57                   	push   %edi
    2ec5:	ff 74 24 64          	pushl  0x64(%esp)
    2ec9:	ff 74 24 64          	pushl  0x64(%esp)
    2ecd:	50                   	push   %eax
    2ece:	68 ca 07 00 00       	push   $0x7ca
			2ecf: R_386_32	.rodata.str1.1
    2ed3:	e8 fc ff ff ff       	call   2ed4 <device_area_is_invalid+0x17a>
			2ed4: R_386_PC32	printk
    2ed8:	b8 01 00 00 00       	mov    $0x1,%eax
    2edd:	83 c4 18             	add    $0x18,%esp
    2ee0:	eb 02                	jmp    2ee4 <device_area_is_invalid+0x18a>
    2ee2:	31 c0                	xor    %eax,%eax
    2ee4:	8b 54 24 38          	mov    0x38(%esp),%edx
    2ee8:	65 33 15 14 00 00 00 	xor    %gs:0x14,%edx
    2eef:	74 05                	je     2ef6 <device_area_is_invalid+0x19c>
    2ef1:	e8 fc ff ff ff       	call   2ef2 <device_area_is_invalid+0x198>
			2ef2: R_386_PC32	__stack_chk_fail
    2ef6:	83 c4 3c             	add    $0x3c,%esp
    2ef9:	5b                   	pop    %ebx
    2efa:	5e                   	pop    %esi
    2efb:	5f                   	pop    %edi
    2efc:	5d                   	pop    %ebp
    2efd:	c3                   	ret    

00002efe <dm_table_set_type>:
    2efe:	55                   	push   %ebp
    2eff:	31 d2                	xor    %edx,%edx
    2f01:	57                   	push   %edi
    2f02:	31 c9                	xor    %ecx,%ecx
    2f04:	56                   	push   %esi
    2f05:	53                   	push   %ebx
    2f06:	31 db                	xor    %ebx,%ebx
    2f08:	8b b0 90 00 00 00    	mov    0x90(%eax),%esi
    2f0e:	eb 2c                	jmp    2f3c <dm_table_set_type+0x3e>
    2f10:	6b eb 2c             	imul   $0x2c,%ebx,%ebp
    2f13:	8b b8 9c 00 00 00    	mov    0x9c(%eax),%edi
    2f19:	8b 6c 3d 04          	mov    0x4(%ebp,%edi,1),%ebp
    2f1d:	bf 01 00 00 00       	mov    $0x1,%edi
    2f22:	83 7d 28 00          	cmpl   $0x0,0x28(%ebp)
    2f26:	0f 45 d7             	cmovne %edi,%edx
    2f29:	0f 44 cf             	cmove  %edi,%ecx
    2f2c:	84 d2                	test   %dl,%dl
    2f2e:	74 0b                	je     2f3b <dm_table_set_type+0x3d>
    2f30:	84 c9                	test   %cl,%cl
    2f32:	74 07                	je     2f3b <dm_table_set_type+0x3d>
    2f34:	68 20 08 00 00       	push   $0x820
			2f35: R_386_32	.rodata.str1.1
    2f39:	eb 42                	jmp    2f7d <dm_table_set_type+0x7f>
    2f3b:	43                   	inc    %ebx
    2f3c:	39 f3                	cmp    %esi,%ebx
    2f3e:	72 d0                	jb     2f10 <dm_table_set_type+0x12>
    2f40:	85 c9                	test   %ecx,%ecx
    2f42:	74 09                	je     2f4d <dm_table_set_type+0x4f>
    2f44:	c7 40 08 01 00 00 00 	movl   $0x1,0x8(%eax)
    2f4b:	eb 5c                	jmp    2fa9 <dm_table_set_type+0xab>
    2f4d:	85 d2                	test   %edx,%edx
    2f4f:	75 04                	jne    2f55 <dm_table_set_type+0x57>
    2f51:	0f 0b                	ud2a   
    2f53:	eb fe                	jmp    2f53 <dm_table_set_type+0x55>
    2f55:	8d 98 a4 00 00 00    	lea    0xa4(%eax),%ebx
    2f5b:	8b 90 a4 00 00 00    	mov    0xa4(%eax),%edx
    2f61:	eb 29                	jmp    2f8c <dm_table_set_type+0x8e>
    2f63:	8b 52 0c             	mov    0xc(%edx),%edx
    2f66:	8b 52 50             	mov    0x50(%edx),%edx
    2f69:	8b 92 94 01 00 00    	mov    0x194(%edx),%edx
    2f6f:	f6 82 b1 01 00 00 20 	testb  $0x20,0x1b1(%edx)
    2f76:	75 12                	jne    2f8a <dm_table_set_type+0x8c>
    2f78:	68 8d 08 00 00       	push   $0x88d
			2f79: R_386_32	.rodata.str1.1
    2f7d:	e8 fc ff ff ff       	call   2f7e <dm_table_set_type+0x80>
			2f7e: R_386_PC32	printk
    2f82:	b8 ea ff ff ff       	mov    $0xffffffea,%eax
    2f87:	59                   	pop    %ecx
    2f88:	eb 21                	jmp    2fab <dm_table_set_type+0xad>
    2f8a:	89 ca                	mov    %ecx,%edx
    2f8c:	8b 0a                	mov    (%edx),%ecx
    2f8e:	8d 74 26 00          	lea    0x0(%esi,%eiz,1),%esi
    2f92:	39 da                	cmp    %ebx,%edx
    2f94:	75 cd                	jne    2f63 <dm_table_set_type+0x65>
    2f96:	83 fe 01             	cmp    $0x1,%esi
    2f99:	76 07                	jbe    2fa2 <dm_table_set_type+0xa4>
    2f9b:	68 e4 08 00 00       	push   $0x8e4
			2f9c: R_386_32	.rodata.str1.1
    2fa0:	eb db                	jmp    2f7d <dm_table_set_type+0x7f>
    2fa2:	c7 40 08 02 00 00 00 	movl   $0x2,0x8(%eax)
    2fa9:	31 c0                	xor    %eax,%eax
    2fab:	5b                   	pop    %ebx
    2fac:	5e                   	pop    %esi
    2fad:	5f                   	pop    %edi
    2fae:	5d                   	pop    %ebp
    2faf:	c3                   	ret    

00002fb0 <dm_table_set_restrictions>:
    2fb0:	55                   	push   %ebp
    2fb1:	89 d5                	mov    %edx,%ebp
    2fb3:	57                   	push   %edi
    2fb4:	56                   	push   %esi
    2fb5:	53                   	push   %ebx
    2fb6:	89 c3                	mov    %eax,%ebx
    2fb8:	89 c8                	mov    %ecx,%eax
    2fba:	83 ec 04             	sub    $0x4,%esp
    2fbd:	8d ba 54 02 00 00    	lea    0x254(%edx),%edi
    2fc3:	b9 0c 00 00 00       	mov    $0xc,%ecx
    2fc8:	89 c6                	mov    %eax,%esi
    2fca:	f3 a5                	rep movsl %ds:(%esi),%es:(%edi)
    2fcc:	80 78 2f 00          	cmpb   $0x0,0x2f(%eax)
    2fd0:	74 0a                	je     2fdc <dm_table_set_restrictions+0x2c>
    2fd2:	0f ba b2 b0 01 00 00 	btrl   $0x0,0x1b0(%edx)
    2fd9:	00 
    2fda:	eb 08                	jmp    2fe4 <dm_table_set_restrictions+0x34>
    2fdc:	0f ba aa b0 01 00 00 	btsl   $0x0,0x1b0(%edx)
    2fe3:	00 
    2fe4:	8d 83 a4 00 00 00    	lea    0xa4(%ebx),%eax
    2fea:	89 04 24             	mov    %eax,(%esp)
    2fed:	8b 03                	mov    (%ebx),%eax
    2fef:	e8 fc ff ff ff       	call   2ff0 <dm_table_set_restrictions+0x40>
			2ff0: R_386_PC32	dm_disk
    2ff4:	83 b8 c0 01 00 00 00 	cmpl   $0x0,0x1c0(%eax)
    2ffb:	0f 84 8f 00 00 00    	je     3090 <dm_table_set_restrictions+0xe0>
    3001:	8b b3 a4 00 00 00    	mov    0xa4(%ebx),%esi
    3007:	31 ff                	xor    %edi,%edi
    3009:	eb 4d                	jmp    3058 <dm_table_set_restrictions+0xa8>
    300b:	85 ff                	test   %edi,%edi
    300d:	74 45                	je     3054 <dm_table_set_restrictions+0xa4>
    300f:	8b 46 0c             	mov    0xc(%esi),%eax
    3012:	8b 50 50             	mov    0x50(%eax),%edx
    3015:	8b 47 0c             	mov    0xc(%edi),%eax
    3018:	8b 40 50             	mov    0x50(%eax),%eax
    301b:	e8 fc ff ff ff       	call   301c <dm_table_set_restrictions+0x6c>
			301c: R_386_PC32	blk_integrity_compare
    3020:	85 c0                	test   %eax,%eax
    3022:	79 30                	jns    3054 <dm_table_set_restrictions+0xa4>
    3024:	8b 46 0c             	mov    0xc(%esi),%eax
    3027:	8b 40 50             	mov    0x50(%eax),%eax
    302a:	83 c0 0c             	add    $0xc,%eax
    302d:	89 04 24             	mov    %eax,(%esp)
    3030:	8b 47 0c             	mov    0xc(%edi),%eax
    3033:	8b 70 50             	mov    0x50(%eax),%esi
    3036:	8b 03                	mov    (%ebx),%eax
    3038:	83 c6 0c             	add    $0xc,%esi
    303b:	e8 fc ff ff ff       	call   303c <dm_table_set_restrictions+0x8c>
			303c: R_386_PC32	dm_device_name
    3040:	ff 34 24             	pushl  (%esp)
    3043:	56                   	push   %esi
    3044:	50                   	push   %eax
    3045:	68 34 09 00 00       	push   $0x934
			3046: R_386_32	.rodata.str1.1
    304a:	e8 fc ff ff ff       	call   304b <dm_table_set_restrictions+0x9b>
			304b: R_386_PC32	printk
    304f:	83 c4 10             	add    $0x10,%esp
    3052:	eb 2e                	jmp    3082 <dm_table_set_restrictions+0xd2>
    3054:	89 f7                	mov    %esi,%edi
    3056:	8b 36                	mov    (%esi),%esi
    3058:	8b 06                	mov    (%esi),%eax
    305a:	8d 74 26 00          	lea    0x0(%esi,%eiz,1),%esi
    305e:	3b 34 24             	cmp    (%esp),%esi
    3061:	75 a8                	jne    300b <dm_table_set_restrictions+0x5b>
    3063:	85 ff                	test   %edi,%edi
    3065:	74 1b                	je     3082 <dm_table_set_restrictions+0xd2>
    3067:	8b 47 0c             	mov    0xc(%edi),%eax
    306a:	8b 40 50             	mov    0x50(%eax),%eax
    306d:	8b b0 c0 01 00 00    	mov    0x1c0(%eax),%esi
    3073:	85 f6                	test   %esi,%esi
    3075:	74 0b                	je     3082 <dm_table_set_restrictions+0xd2>
    3077:	8b 03                	mov    (%ebx),%eax
    3079:	e8 fc ff ff ff       	call   307a <dm_table_set_restrictions+0xca>
			307a: R_386_PC32	dm_disk
    307e:	89 f2                	mov    %esi,%edx
    3080:	eb 09                	jmp    308b <dm_table_set_restrictions+0xdb>
    3082:	8b 03                	mov    (%ebx),%eax
    3084:	e8 fc ff ff ff       	call   3085 <dm_table_set_restrictions+0xd5>
			3085: R_386_PC32	dm_disk
    3089:	31 d2                	xor    %edx,%edx
    308b:	e8 fc ff ff ff       	call   308c <dm_table_set_restrictions+0xdc>
			308c: R_386_PC32	blk_integrity_register
    3090:	f0 83 04 24 00       	lock addl $0x0,(%esp)
    3095:	83 7b 08 02          	cmpl   $0x2,0x8(%ebx)
    3099:	75 08                	jne    30a3 <dm_table_set_restrictions+0xf3>
    309b:	0f ba ad b0 01 00 00 	btsl   $0xd,0x1b0(%ebp)
    30a2:	0d 
    30a3:	5b                   	pop    %ebx
    30a4:	5b                   	pop    %ebx
    30a5:	5e                   	pop    %esi
    30a6:	5f                   	pop    %edi
    30a7:	5d                   	pop    %ebp
    30a8:	c3                   	ret    

000030a9 <dm_calculate_queue_limits>:
    30a9:	55                   	push   %ebp
    30aa:	31 ed                	xor    %ebp,%ebp
    30ac:	57                   	push   %edi
    30ad:	89 c7                	mov    %eax,%edi
    30af:	56                   	push   %esi
    30b0:	89 d0                	mov    %edx,%eax
    30b2:	53                   	push   %ebx
    30b3:	83 c4 80             	add    $0xffffff80,%esp
    30b6:	89 54 24 10          	mov    %edx,0x10(%esp)
    30ba:	e8 fc ff ff ff       	call   30bb <dm_calculate_queue_limits+0x12>
			30bb: R_386_PC32	blk_set_default_limits
    30bf:	e9 af 00 00 00       	jmp    3173 <dm_calculate_queue_limits+0xca>
    30c4:	8d 44 24 50          	lea    0x50(%esp),%eax
    30c8:	31 f6                	xor    %esi,%esi
    30ca:	e8 fc ff ff ff       	call   30cb <dm_calculate_queue_limits+0x22>
			30cb: R_386_PC32	blk_set_default_limits
    30cf:	3b af 90 00 00 00    	cmp    0x90(%edi),%ebp
    30d5:	73 09                	jae    30e0 <dm_calculate_queue_limits+0x37>
    30d7:	6b f5 2c             	imul   $0x2c,%ebp,%esi
    30da:	03 b7 9c 00 00 00    	add    0x9c(%edi),%esi
    30e0:	8b 46 04             	mov    0x4(%esi),%eax
    30e3:	8b 58 5c             	mov    0x5c(%eax),%ebx
    30e6:	85 db                	test   %ebx,%ebx
    30e8:	74 3e                	je     3128 <dm_calculate_queue_limits+0x7f>
    30ea:	8d 4c 24 50          	lea    0x50(%esp),%ecx
    30ee:	ba 00 00 00 00       	mov    $0x0,%edx
			30ef: R_386_32	dm_set_device_limits
    30f3:	89 f0                	mov    %esi,%eax
    30f5:	ff d3                	call   *%ebx
    30f7:	8b 46 04             	mov    0x4(%esi),%eax
    30fa:	8b 48 60             	mov    0x60(%eax),%ecx
    30fd:	85 c9                	test   %ecx,%ecx
    30ff:	74 08                	je     3109 <dm_calculate_queue_limits+0x60>
    3101:	8d 54 24 50          	lea    0x50(%esp),%edx
    3105:	89 f0                	mov    %esi,%eax
    3107:	ff d1                	call   *%ecx
    3109:	8b 5e 04             	mov    0x4(%esi),%ebx
    310c:	8d 4c 24 50          	lea    0x50(%esp),%ecx
    3110:	ba 5a 2d 00 00       	mov    $0x2d5a,%edx
			3111: R_386_32	.text
    3115:	89 f0                	mov    %esi,%eax
    3117:	ff 53 5c             	call   *0x5c(%ebx)
    311a:	85 c0                	test   %eax,%eax
    311c:	74 0a                	je     3128 <dm_calculate_queue_limits+0x7f>
    311e:	b8 ea ff ff ff       	mov    $0xffffffea,%eax
    3123:	e9 51 01 00 00       	jmp    3279 <dm_calculate_queue_limits+0x1d0>
    3128:	6a 00                	push   $0x0
    312a:	6a 00                	push   $0x0
    312c:	8b 44 24 18          	mov    0x18(%esp),%eax
    3130:	8d 54 24 58          	lea    0x58(%esp),%edx
    3134:	e8 fc ff ff ff       	call   3135 <dm_calculate_queue_limits+0x8c>
			3135: R_386_PC32	blk_stack_limits
    3139:	5a                   	pop    %edx
    313a:	59                   	pop    %ecx
    313b:	85 c0                	test   %eax,%eax
    313d:	79 33                	jns    3172 <dm_calculate_queue_limits+0xc9>
    313f:	8b 56 10             	mov    0x10(%esi),%edx
    3142:	8b 4e 14             	mov    0x14(%esi),%ecx
    3145:	8b 07                	mov    (%edi),%eax
    3147:	8b 5e 08             	mov    0x8(%esi),%ebx
    314a:	8b 76 0c             	mov    0xc(%esi),%esi
    314d:	89 54 24 04          	mov    %edx,0x4(%esp)
    3151:	89 0c 24             	mov    %ecx,(%esp)
    3154:	e8 fc ff ff ff       	call   3155 <dm_calculate_queue_limits+0xac>
			3155: R_386_PC32	dm_device_name
    3159:	8b 0c 24             	mov    (%esp),%ecx
    315c:	8b 54 24 04          	mov    0x4(%esp),%edx
    3160:	51                   	push   %ecx
    3161:	52                   	push   %edx
    3162:	56                   	push   %esi
    3163:	53                   	push   %ebx
    3164:	50                   	push   %eax
    3165:	68 78 09 00 00       	push   $0x978
			3166: R_386_32	.rodata.str1.1
    316a:	e8 fc ff ff ff       	call   316b <dm_calculate_queue_limits+0xc2>
			316b: R_386_PC32	printk
    316f:	83 c4 18             	add    $0x18,%esp
    3172:	45                   	inc    %ebp
    3173:	3b af 90 00 00 00    	cmp    0x90(%edi),%ebp
    3179:	0f 82 45 ff ff ff    	jb     30c4 <dm_calculate_queue_limits+0x1b>
    317f:	8b 44 24 10          	mov    0x10(%esp),%eax
    3183:	31 db                	xor    %ebx,%ebx
    3185:	31 f6                	xor    %esi,%esi
    3187:	31 ed                	xor    %ebp,%ebp
    3189:	8b 40 28             	mov    0x28(%eax),%eax
    318c:	c7 44 24 14 00 00 00 	movl   $0x0,0x14(%esp)
    3193:	00 
    3194:	c7 44 24 0c 00 00 00 	movl   $0x0,0xc(%esp)
    319b:	00 
    319c:	66 c1 e8 09          	shr    $0x9,%ax
    31a0:	66 89 44 24 0a       	mov    %ax,0xa(%esp)
    31a5:	48                   	dec    %eax
    31a6:	66 89 44 24 1e       	mov    %ax,0x1e(%esp)
    31ab:	eb 73                	jmp    3220 <dm_calculate_queue_limits+0x177>
    31ad:	8b 5c 24 14          	mov    0x14(%esp),%ebx
    31b1:	8d 44 24 20          	lea    0x20(%esp),%eax
    31b5:	03 9f 9c 00 00 00    	add    0x9c(%edi),%ebx
    31bb:	ff 44 24 0c          	incl   0xc(%esp)
    31bf:	e8 fc ff ff ff       	call   31c0 <dm_calculate_queue_limits+0x117>
			31c0: R_386_PC32	blk_set_default_limits
    31c4:	8b 43 04             	mov    0x4(%ebx),%eax
    31c7:	8b 40 5c             	mov    0x5c(%eax),%eax
    31ca:	85 c0                	test   %eax,%eax
    31cc:	89 44 24 18          	mov    %eax,0x18(%esp)
    31d0:	74 0f                	je     31e1 <dm_calculate_queue_limits+0x138>
    31d2:	8d 4c 24 20          	lea    0x20(%esp),%ecx
    31d6:	ba 00 00 00 00       	mov    $0x0,%edx
			31d7: R_386_32	dm_set_device_limits
    31db:	89 d8                	mov    %ebx,%eax
    31dd:	ff 54 24 18          	call   *0x18(%esp)
    31e1:	83 7b 14 00          	cmpl   $0x0,0x14(%ebx)
    31e5:	0f b7 c6             	movzwl %si,%eax
    31e8:	8b 53 10             	mov    0x10(%ebx),%edx
    31eb:	75 04                	jne    31f1 <dm_calculate_queue_limits+0x148>
    31ed:	39 d0                	cmp    %edx,%eax
    31ef:	73 13                	jae    3204 <dm_calculate_queue_limits+0x15b>
    31f1:	8b 44 24 48          	mov    0x48(%esp),%eax
    31f5:	0f b7 f6             	movzwl %si,%esi
    31f8:	66 c1 e8 09          	shr    $0x9,%ax
    31fc:	0f b7 c0             	movzwl %ax,%eax
    31ff:	48                   	dec    %eax
    3200:	85 c6                	test   %eax,%esi
    3202:	75 2f                	jne    3233 <dm_calculate_queue_limits+0x18a>
    3204:	66 8b 44 24 0a       	mov    0xa(%esp),%ax
    3209:	01 d5                	add    %edx,%ebp
    320b:	31 f6                	xor    %esi,%esi
    320d:	66 23 6c 24 1e       	and    0x1e(%esp),%bp
    3212:	66 29 e8             	sub    %bp,%ax
    3215:	66 85 ed             	test   %bp,%bp
    3218:	0f 45 f0             	cmovne %eax,%esi
    321b:	83 44 24 14 2c       	addl   $0x2c,0x14(%esp)
    3220:	8b 44 24 0c          	mov    0xc(%esp),%eax
    3224:	3b 87 90 00 00 00    	cmp    0x90(%edi),%eax
    322a:	72 81                	jb     31ad <dm_calculate_queue_limits+0x104>
    322c:	31 c0                	xor    %eax,%eax
    322e:	66 85 f6             	test   %si,%si
    3231:	74 46                	je     3279 <dm_calculate_queue_limits+0x1d0>
    3233:	8b 44 24 10          	mov    0x10(%esp),%eax
    3237:	8b 53 10             	mov    0x10(%ebx),%edx
    323a:	8b 4b 14             	mov    0x14(%ebx),%ecx
    323d:	8b 73 0c             	mov    0xc(%ebx),%esi
    3240:	0f b7 68 28          	movzwl 0x28(%eax),%ebp
    3244:	8b 07                	mov    (%edi),%eax
    3246:	8b 5b 08             	mov    0x8(%ebx),%ebx
    3249:	89 54 24 04          	mov    %edx,0x4(%esp)
    324d:	89 0c 24             	mov    %ecx,(%esp)
    3250:	e8 fc ff ff ff       	call   3251 <dm_calculate_queue_limits+0x1a8>
			3251: R_386_PC32	dm_device_name
    3255:	55                   	push   %ebp
    3256:	8b 4c 24 04          	mov    0x4(%esp),%ecx
    325a:	8b 54 24 08          	mov    0x8(%esp),%edx
    325e:	51                   	push   %ecx
    325f:	52                   	push   %edx
    3260:	56                   	push   %esi
    3261:	53                   	push   %ebx
    3262:	ff 74 24 20          	pushl  0x20(%esp)
    3266:	50                   	push   %eax
    3267:	68 e8 09 00 00       	push   $0x9e8
			3268: R_386_32	.rodata.str1.1
    326c:	e8 fc ff ff ff       	call   326d <dm_calculate_queue_limits+0x1c4>
			326d: R_386_PC32	printk
    3271:	b8 ea ff ff ff       	mov    $0xffffffea,%eax
    3276:	83 c4 20             	add    $0x20,%esp
    3279:	83 ec 80             	sub    $0xffffff80,%esp
    327c:	5b                   	pop    %ebx
    327d:	5e                   	pop    %esi
    327e:	5f                   	pop    %edi
    327f:	5d                   	pop    %ebp
    3280:	c3                   	ret    

00003281 <dm_table_event>:
    3281:	53                   	push   %ebx
    3282:	89 c3                	mov    %eax,%ebx
    3284:	89 e0                	mov    %esp,%eax
    3286:	25 00 e0 ff ff       	and    $0xffffe000,%eax
    328b:	f7 40 14 00 ff ff 07 	testl  $0x7ffff00,0x14(%eax)
    3292:	74 04                	je     3298 <dm_table_event+0x17>
    3294:	0f 0b                	ud2a   
    3296:	eb fe                	jmp    3296 <dm_table_event+0x15>
    3298:	b8 00 00 00 00       	mov    $0x0,%eax
			3299: R_386_32	.data
    329d:	e8 fc ff ff ff       	call   329e <dm_table_event+0x1d>
			329e: R_386_PC32	mutex_lock
    32a2:	8b 93 ac 00 00 00    	mov    0xac(%ebx),%edx
    32a8:	85 d2                	test   %edx,%edx
    32aa:	74 08                	je     32b4 <dm_table_event+0x33>
    32ac:	8b 83 b0 00 00 00    	mov    0xb0(%ebx),%eax
    32b2:	ff d2                	call   *%edx
    32b4:	5b                   	pop    %ebx
    32b5:	b8 00 00 00 00       	mov    $0x0,%eax
			32b6: R_386_32	.data
    32ba:	e9 fc ff ff ff       	jmp    32bb <dm_table_event+0x3a>
			32bb: R_386_PC32	mutex_unlock

000032bf <dm_table_event_callback>:
    32bf:	57                   	push   %edi
    32c0:	89 cf                	mov    %ecx,%edi
    32c2:	56                   	push   %esi
    32c3:	89 d6                	mov    %edx,%esi
    32c5:	53                   	push   %ebx
    32c6:	89 c3                	mov    %eax,%ebx
    32c8:	b8 00 00 00 00       	mov    $0x0,%eax
			32c9: R_386_32	.data
    32cd:	e8 fc ff ff ff       	call   32ce <dm_table_event_callback+0xf>
			32ce: R_386_PC32	mutex_lock
    32d2:	b8 00 00 00 00       	mov    $0x0,%eax
			32d3: R_386_32	.data
    32d7:	89 b3 ac 00 00 00    	mov    %esi,0xac(%ebx)
    32dd:	89 bb b0 00 00 00    	mov    %edi,0xb0(%ebx)
    32e3:	5b                   	pop    %ebx
    32e4:	5e                   	pop    %esi
    32e5:	5f                   	pop    %edi
    32e6:	e9 fc ff ff ff       	jmp    32e7 <dm_table_event_callback+0x28>
			32e7: R_386_PC32	mutex_unlock

000032eb <dm_table_free_md_mempools>:
    32eb:	53                   	push   %ebx
    32ec:	89 c3                	mov    %eax,%ebx
    32ee:	8b 80 b4 00 00 00    	mov    0xb4(%eax),%eax
    32f4:	e8 fc ff ff ff       	call   32f5 <dm_table_free_md_mempools+0xa>
			32f5: R_386_PC32	dm_free_md_mempools
    32f9:	c7 83 b4 00 00 00 00 	movl   $0x0,0xb4(%ebx)
    3300:	00 00 00 
    3303:	5b                   	pop    %ebx
    3304:	c3                   	ret    

00003305 <dm_table_alloc_md_mempools>:
    3305:	53                   	push   %ebx
    3306:	89 c3                	mov    %eax,%ebx
    3308:	8b 40 08             	mov    0x8(%eax),%eax
    330b:	85 c0                	test   %eax,%eax
    330d:	75 12                	jne    3321 <dm_table_alloc_md_mempools+0x1c>
    330f:	68 58 0a 00 00       	push   $0xa58
			3310: R_386_32	.rodata.str1.1
    3314:	e8 fc ff ff ff       	call   3315 <dm_table_alloc_md_mempools+0x10>
			3315: R_386_PC32	printk
    3319:	b8 ea ff ff ff       	mov    $0xffffffea,%eax
    331e:	5b                   	pop    %ebx
    331f:	eb 13                	jmp    3334 <dm_table_alloc_md_mempools+0x2f>
    3321:	e8 fc ff ff ff       	call   3322 <dm_table_alloc_md_mempools+0x1d>
			3322: R_386_PC32	dm_alloc_md_mempools
    3326:	83 f8 01             	cmp    $0x1,%eax
    3329:	89 83 b4 00 00 00    	mov    %eax,0xb4(%ebx)
    332f:	19 c0                	sbb    %eax,%eax
    3331:	83 e0 f4             	and    $0xfffffff4,%eax
    3334:	5b                   	pop    %ebx
    3335:	c3                   	ret    

00003336 <realloc_argv>:
    3336:	55                   	push   %ebp
    3337:	bd 40 00 00 00       	mov    $0x40,%ebp
    333c:	57                   	push   %edi
    333d:	56                   	push   %esi
    333e:	53                   	push   %ebx
    333f:	89 c3                	mov    %eax,%ebx
    3341:	83 ec 08             	sub    $0x8,%esp
    3344:	89 54 24 04          	mov    %edx,0x4(%esp)
    3348:	8b 00                	mov    (%eax),%eax
    334a:	85 c0                	test   %eax,%eax
    334c:	8d 14 00             	lea    (%eax,%eax,1),%edx
    334f:	0f 45 ea             	cmovne %edx,%ebp
    3352:	ba d0 00 00 00       	mov    $0xd0,%edx
    3357:	8d 04 ad 00 00 00 00 	lea    0x0(,%ebp,4),%eax
    335e:	e8 fc ff ff ff       	call   335f <realloc_argv+0x29>
			335f: R_386_PC32	__kmalloc
    3363:	85 c0                	test   %eax,%eax
    3365:	89 c2                	mov    %eax,%edx
    3367:	74 1d                	je     3386 <realloc_argv+0x50>
    3369:	8b 03                	mov    (%ebx),%eax
    336b:	89 d7                	mov    %edx,%edi
    336d:	8b 74 24 04          	mov    0x4(%esp),%esi
    3371:	c1 e0 02             	shl    $0x2,%eax
    3374:	89 c1                	mov    %eax,%ecx
    3376:	c1 e9 02             	shr    $0x2,%ecx
    3379:	f3 a5                	rep movsl %ds:(%esi),%es:(%edi)
    337b:	89 c1                	mov    %eax,%ecx
    337d:	83 e1 03             	and    $0x3,%ecx
    3380:	74 02                	je     3384 <realloc_argv+0x4e>
    3382:	f3 a4                	rep movsb %ds:(%esi),%es:(%edi)
    3384:	89 2b                	mov    %ebp,(%ebx)
    3386:	8b 44 24 04          	mov    0x4(%esp),%eax
    338a:	89 14 24             	mov    %edx,(%esp)
    338d:	e8 fc ff ff ff       	call   338e <realloc_argv+0x58>
			338e: R_386_PC32	kfree
    3392:	8b 14 24             	mov    (%esp),%edx
    3395:	5e                   	pop    %esi
    3396:	5f                   	pop    %edi
    3397:	5b                   	pop    %ebx
    3398:	89 d0                	mov    %edx,%eax
    339a:	5e                   	pop    %esi
    339b:	5f                   	pop    %edi
    339c:	5d                   	pop    %ebp
    339d:	c3                   	ret    

0000339e <dm_split_args>:
    339e:	55                   	push   %ebp
    339f:	57                   	push   %edi
    33a0:	56                   	push   %esi
    33a1:	89 ce                	mov    %ecx,%esi
    33a3:	53                   	push   %ebx
    33a4:	89 c3                	mov    %eax,%ebx
    33a6:	83 ec 0c             	sub    $0xc,%esp
    33a9:	85 c9                	test   %ecx,%ecx
    33ab:	89 14 24             	mov    %edx,(%esp)
    33ae:	c7 44 24 08 00 00 00 	movl   $0x0,0x8(%esp)
    33b5:	00 
    33b6:	c7 00 00 00 00 00    	movl   $0x0,(%eax)
    33bc:	75 0b                	jne    33c9 <dm_split_args+0x2b>
    33be:	c7 02 00 00 00 00    	movl   $0x0,(%edx)
    33c4:	e9 99 00 00 00       	jmp    3462 <dm_split_args+0xc4>
    33c9:	8d 7c 24 08          	lea    0x8(%esp),%edi
    33cd:	31 d2                	xor    %edx,%edx
    33cf:	89 f8                	mov    %edi,%eax
    33d1:	e8 60 ff ff ff       	call   3336 <realloc_argv>
    33d6:	85 c0                	test   %eax,%eax
    33d8:	0f 84 88 00 00 00    	je     3466 <dm_split_args+0xc8>
    33de:	89 f7                	mov    %esi,%edi
    33e0:	eb 02                	jmp    33e4 <dm_split_args+0x46>
    33e2:	89 cf                	mov    %ecx,%edi
    33e4:	8a 17                	mov    (%edi),%dl
    33e6:	84 d2                	test   %dl,%dl
    33e8:	74 73                	je     345d <dm_split_args+0xbf>
    33ea:	0f b6 d2             	movzbl %dl,%edx
    33ed:	f6 82 00 00 00 00 20 	testb  $0x20,0x0(%edx)
			33ef: R_386_32	_ctype
    33f4:	8d 4f 01             	lea    0x1(%edi),%ecx
    33f7:	75 e9                	jne    33e2 <dm_split_args+0x44>
    33f9:	eb 78                	jmp    3473 <dm_split_args+0xd5>
    33fb:	80 fa 5c             	cmp    $0x5c,%dl
    33fe:	75 0f                	jne    340f <dm_split_args+0x71>
    3400:	8a 46 01             	mov    0x1(%esi),%al
    3403:	84 c0                	test   %al,%al
    3405:	74 08                	je     340f <dm_split_args+0x71>
    3407:	88 41 ff             	mov    %al,-0x1(%ecx)
    340a:	83 c6 02             	add    $0x2,%esi
    340d:	eb 10                	jmp    341f <dm_split_args+0x81>
    340f:	0f b6 c2             	movzbl %dl,%eax
    3412:	f6 80 00 00 00 00 20 	testb  $0x20,0x0(%eax)
			3414: R_386_32	_ctype
    3419:	75 12                	jne    342d <dm_split_args+0x8f>
    341b:	88 51 ff             	mov    %dl,-0x1(%ecx)
    341e:	46                   	inc    %esi
    341f:	41                   	inc    %ecx
    3420:	8d 41 ff             	lea    -0x1(%ecx),%eax
    3423:	89 44 24 04          	mov    %eax,0x4(%esp)
    3427:	8a 16                	mov    (%esi),%dl
    3429:	84 d2                	test   %dl,%dl
    342b:	75 ce                	jne    33fb <dm_split_args+0x5d>
    342d:	8b 13                	mov    (%ebx),%edx
    342f:	89 e8                	mov    %ebp,%eax
    3431:	42                   	inc    %edx
    3432:	3b 54 24 08          	cmp    0x8(%esp),%edx
    3436:	76 0f                	jbe    3447 <dm_split_args+0xa9>
    3438:	89 ea                	mov    %ebp,%edx
    343a:	8d 44 24 08          	lea    0x8(%esp),%eax
    343e:	e8 f3 fe ff ff       	call   3336 <realloc_argv>
    3443:	85 c0                	test   %eax,%eax
    3445:	74 1f                	je     3466 <dm_split_args+0xc8>
    3447:	8b 54 24 04          	mov    0x4(%esp),%edx
    344b:	80 3e 01             	cmpb   $0x1,(%esi)
    344e:	c6 02 00             	movb   $0x0,(%edx)
    3451:	8b 13                	mov    (%ebx),%edx
    3453:	83 de ff             	sbb    $0xffffffff,%esi
    3456:	89 3c 90             	mov    %edi,(%eax,%edx,4)
    3459:	ff 03                	incl   (%ebx)
    345b:	eb 81                	jmp    33de <dm_split_args+0x40>
    345d:	8b 14 24             	mov    (%esp),%edx
    3460:	89 02                	mov    %eax,(%edx)
    3462:	31 c0                	xor    %eax,%eax
    3464:	eb 05                	jmp    346b <dm_split_args+0xcd>
    3466:	b8 f4 ff ff ff       	mov    $0xfffffff4,%eax
    346b:	83 c4 0c             	add    $0xc,%esp
    346e:	5b                   	pop    %ebx
    346f:	5e                   	pop    %esi
    3470:	5f                   	pop    %edi
    3471:	5d                   	pop    %ebp
    3472:	c3                   	ret    
    3473:	89 fe                	mov    %edi,%esi
    3475:	89 c5                	mov    %eax,%ebp
    3477:	eb a7                	jmp    3420 <dm_split_args+0x82>

00003479 <close_dev>:
    3479:	53                   	push   %ebx
    347a:	89 c3                	mov    %eax,%ebx
    347c:	83 7b 0c 00          	cmpl   $0x0,0xc(%ebx)
    3480:	89 d0                	mov    %edx,%eax
    3482:	74 21                	je     34a5 <close_dev+0x2c>
    3484:	e8 fc ff ff ff       	call   3485 <close_dev+0xc>
			3485: R_386_PC32	dm_disk
    3489:	89 c2                	mov    %eax,%edx
    348b:	8b 43 0c             	mov    0xc(%ebx),%eax
    348e:	e8 fc ff ff ff       	call   348f <close_dev+0x16>
			348f: R_386_PC32	bd_release_from_disk
    3493:	8b 53 10             	mov    0x10(%ebx),%edx
    3496:	8b 43 0c             	mov    0xc(%ebx),%eax
    3499:	e8 fc ff ff ff       	call   349a <close_dev+0x21>
			349a: R_386_PC32	blkdev_put
    349e:	c7 43 0c 00 00 00 00 	movl   $0x0,0xc(%ebx)
    34a5:	5b                   	pop    %ebx
    34a6:	c3                   	ret    

000034a7 <dm_put_device>:
    34a7:	56                   	push   %esi
    34a8:	53                   	push   %ebx
    34a9:	89 d3                	mov    %edx,%ebx
