
/lib/modules/2.6.32.8/kernel/fs/ext3/ext3.ko:     file format elf32-i386


Disassembly of section .text:

00000000 <ext3_bg_has_super>:
       0:	53                   	push   %ebx
       1:	8b 80 84 01 00 00    	mov    0x184(%eax),%eax
       7:	8b 40 34             	mov    0x34(%eax),%eax
       a:	f6 40 64 01          	testb  $0x1,0x64(%eax)
       e:	74 48                	je     58 <ext3_bg_has_super+0x58>
      10:	83 fa 01             	cmp    $0x1,%edx
      13:	7e 43                	jle    58 <ext3_bg_has_super+0x58>
      15:	31 c0                	xor    %eax,%eax
      17:	f6 c2 01             	test   $0x1,%dl
      1a:	bb 07 00 00 00       	mov    $0x7,%ebx
      1f:	74 3c                	je     5d <ext3_bg_has_super+0x5d>
      21:	eb 03                	jmp    26 <ext3_bg_has_super+0x26>
      23:	6b db 07             	imul   $0x7,%ebx,%ebx
      26:	39 da                	cmp    %ebx,%edx
      28:	7f f9                	jg     23 <ext3_bg_has_super+0x23>
      2a:	39 d3                	cmp    %edx,%ebx
      2c:	b9 05 00 00 00       	mov    $0x5,%ecx
      31:	75 05                	jne    38 <ext3_bg_has_super+0x38>
      33:	eb 23                	jmp    58 <ext3_bg_has_super+0x58>
      35:	8d 0c 89             	lea    (%ecx,%ecx,4),%ecx
      38:	39 ca                	cmp    %ecx,%edx
      3a:	7f f9                	jg     35 <ext3_bg_has_super+0x35>
      3c:	39 d1                	cmp    %edx,%ecx
      3e:	b8 03 00 00 00       	mov    $0x3,%eax
      43:	75 05                	jne    4a <ext3_bg_has_super+0x4a>
      45:	eb 11                	jmp    58 <ext3_bg_has_super+0x58>
      47:	8d 04 40             	lea    (%eax,%eax,2),%eax
      4a:	39 c2                	cmp    %eax,%edx
      4c:	7f f9                	jg     47 <ext3_bg_has_super+0x47>
      4e:	39 d0                	cmp    %edx,%eax
      50:	0f 94 c0             	sete   %al
      53:	0f b6 c0             	movzbl %al,%eax
      56:	eb 05                	jmp    5d <ext3_bg_has_super+0x5d>
      58:	b8 01 00 00 00       	mov    $0x1,%eax
      5d:	5b                   	pop    %ebx
      5e:	c3                   	ret    

0000005f <ext3_bg_num_gdb>:
      5f:	57                   	push   %edi
      60:	89 d1                	mov    %edx,%ecx
      62:	56                   	push   %esi
      63:	89 c6                	mov    %eax,%esi
      65:	53                   	push   %ebx
      66:	8b 90 84 01 00 00    	mov    0x184(%eax),%edx
      6c:	8b 42 34             	mov    0x34(%edx),%eax
      6f:	8b 5a 20             	mov    0x20(%edx),%ebx
      72:	f6 40 60 10          	testb  $0x10,0x60(%eax)
      76:	8b b8 04 01 00 00    	mov    0x104(%eax),%edi
      7c:	74 0a                	je     88 <ext3_bg_num_gdb+0x29>
      7e:	31 d2                	xor    %edx,%edx
      80:	89 c8                	mov    %ecx,%eax
      82:	f7 f3                	div    %ebx
      84:	39 f8                	cmp    %edi,%eax
      86:	73 1c                	jae    a4 <ext3_bg_num_gdb+0x45>
      88:	89 ca                	mov    %ecx,%edx
      8a:	89 f0                	mov    %esi,%eax
      8c:	e8 fc ff ff ff       	call   8d <ext3_bg_num_gdb+0x2e>
			8d: R_386_PC32	ext3_bg_has_super
      91:	89 c2                	mov    %eax,%edx
      93:	31 c0                	xor    %eax,%eax
      95:	85 d2                	test   %edx,%edx
      97:	74 2d                	je     c6 <ext3_bg_num_gdb+0x67>
      99:	8b 86 84 01 00 00    	mov    0x184(%esi),%eax
      9f:	8b 40 1c             	mov    0x1c(%eax),%eax
      a2:	eb 22                	jmp    c6 <ext3_bg_num_gdb+0x67>
      a4:	89 c6                	mov    %eax,%esi
      a6:	b8 01 00 00 00       	mov    $0x1,%eax
      ab:	0f af f3             	imul   %ebx,%esi
      ae:	39 f1                	cmp    %esi,%ecx
      b0:	74 14                	je     c6 <ext3_bg_num_gdb+0x67>
      b2:	8d 44 1e ff          	lea    -0x1(%esi,%ebx,1),%eax
      b6:	39 c1                	cmp    %eax,%ecx
      b8:	0f 94 c2             	sete   %dl
      bb:	46                   	inc    %esi
      bc:	39 f1                	cmp    %esi,%ecx
      be:	0f 94 c0             	sete   %al
      c1:	09 c2                	or     %eax,%edx
      c3:	0f b6 c2             	movzbl %dl,%eax
      c6:	5b                   	pop    %ebx
      c7:	5e                   	pop    %esi
      c8:	5f                   	pop    %edi
      c9:	c3                   	ret    

000000ca <ext3_get_group_desc>:
      ca:	55                   	push   %ebp
      cb:	57                   	push   %edi
      cc:	56                   	push   %esi
      cd:	53                   	push   %ebx
      ce:	8b b0 84 01 00 00    	mov    0x184(%eax),%esi
      d4:	89 cb                	mov    %ecx,%ebx
      d6:	8b 4e 24             	mov    0x24(%esi),%ecx
      d9:	39 ca                	cmp    %ecx,%edx
      db:	72 19                	jb     f6 <ext3_get_group_desc+0x2c>
      dd:	51                   	push   %ecx
      de:	52                   	push   %edx
      df:	68 00 00 00 00       	push   $0x0
			e0: R_386_32	.rodata.str1.1
      e4:	68 43 00 00 00       	push   $0x43
			e5: R_386_32	.rodata.str1.1
      e9:	50                   	push   %eax
      ea:	e8 fc ff ff ff       	call   eb <ext3_get_group_desc+0x21>
			eb: R_386_PC32	ext3_error
      ef:	31 c0                	xor    %eax,%eax
      f1:	83 c4 14             	add    $0x14,%esp
      f4:	eb 45                	jmp    13b <ext3_get_group_desc+0x71>
      f6:	8b b8 84 01 00 00    	mov    0x184(%eax),%edi
      fc:	89 d5                	mov    %edx,%ebp
      fe:	8b 76 38             	mov    0x38(%esi),%esi
     101:	8b 4f 54             	mov    0x54(%edi),%ecx
     104:	8b 7f 20             	mov    0x20(%edi),%edi
     107:	d3 ed                	shr    %cl,%ebp
     109:	8b 34 ae             	mov    (%esi,%ebp,4),%esi
     10c:	4f                   	dec    %edi
     10d:	21 d7                	and    %edx,%edi
     10f:	85 f6                	test   %esi,%esi
     111:	75 1a                	jne    12d <ext3_get_group_desc+0x63>
     113:	57                   	push   %edi
     114:	55                   	push   %ebp
     115:	52                   	push   %edx
     116:	68 57 00 00 00       	push   $0x57
			117: R_386_32	.rodata.str1.1
     11b:	68 43 00 00 00       	push   $0x43
			11c: R_386_32	.rodata.str1.1
     120:	50                   	push   %eax
     121:	e8 fc ff ff ff       	call   122 <ext3_get_group_desc+0x58>
			122: R_386_PC32	ext3_error
     126:	31 c0                	xor    %eax,%eax
     128:	83 c4 18             	add    $0x18,%esp
     12b:	eb 0e                	jmp    13b <ext3_get_group_desc+0x71>
     12d:	85 db                	test   %ebx,%ebx
     12f:	8b 46 18             	mov    0x18(%esi),%eax
     132:	74 02                	je     136 <ext3_get_group_desc+0x6c>
     134:	89 33                	mov    %esi,(%ebx)
     136:	c1 e7 05             	shl    $0x5,%edi
     139:	01 f8                	add    %edi,%eax
     13b:	5b                   	pop    %ebx
     13c:	5e                   	pop    %esi
     13d:	5f                   	pop    %edi
     13e:	5d                   	pop    %ebp
     13f:	c3                   	ret    

00000140 <ext3_count_free_blocks>:
     140:	55                   	push   %ebp
     141:	57                   	push   %edi
     142:	56                   	push   %esi
     143:	53                   	push   %ebx
     144:	89 c3                	mov    %eax,%ebx
     146:	8b 80 84 01 00 00    	mov    0x184(%eax),%eax
     14c:	8b 68 24             	mov    0x24(%eax),%ebp
     14f:	31 f6                	xor    %esi,%esi
     151:	31 ff                	xor    %edi,%edi
     153:	eb 16                	jmp    16b <ext3_count_free_blocks+0x2b>
     155:	31 c9                	xor    %ecx,%ecx
     157:	89 f2                	mov    %esi,%edx
     159:	89 d8                	mov    %ebx,%eax
     15b:	e8 fc ff ff ff       	call   15c <ext3_count_free_blocks+0x1c>
			15c: R_386_PC32	ext3_get_group_desc
     160:	85 c0                	test   %eax,%eax
     162:	74 06                	je     16a <ext3_count_free_blocks+0x2a>
     164:	0f b7 40 0c          	movzwl 0xc(%eax),%eax
     168:	01 c7                	add    %eax,%edi
     16a:	46                   	inc    %esi
     16b:	39 ee                	cmp    %ebp,%esi
     16d:	72 e6                	jb     155 <ext3_count_free_blocks+0x15>
     16f:	89 f8                	mov    %edi,%eax
     171:	5b                   	pop    %ebx
     172:	5e                   	pop    %esi
     173:	5f                   	pop    %edi
     174:	5d                   	pop    %ebp
     175:	c3                   	ret    

00000176 <ext3_has_free_blocks>:
     176:	53                   	push   %ebx
     177:	89 c3                	mov    %eax,%ebx
     179:	8b 80 84 00 00 00    	mov    0x84(%eax),%eax
     17f:	8b 93 88 00 00 00    	mov    0x88(%ebx),%edx
     185:	85 d2                	test   %edx,%edx
     187:	79 05                	jns    18e <ext3_has_free_blocks+0x18>
     189:	b8 01 00 00 00       	mov    $0x1,%eax
     18e:	8b 4b 34             	mov    0x34(%ebx),%ecx
     191:	8b 49 08             	mov    0x8(%ecx),%ecx
     194:	41                   	inc    %ecx
     195:	39 c1                	cmp    %eax,%ecx
     197:	76 3c                	jbe    1d5 <ext3_has_free_blocks+0x5f>
     199:	b8 18 00 00 00       	mov    $0x18,%eax
     19e:	e8 fc ff ff ff       	call   19f <ext3_has_free_blocks+0x29>
			19f: R_386_PC32	capable
     1a3:	85 c0                	test   %eax,%eax
     1a5:	75 2e                	jne    1d5 <ext3_has_free_blocks+0x5f>
     1a7:	64 a1 00 00 00 00    	mov    %fs:0x0,%eax
			1a9: R_386_32	per_cpu__current_task
     1ad:	8b 80 fc 01 00 00    	mov    0x1fc(%eax),%eax
     1b3:	8b 53 44             	mov    0x44(%ebx),%edx
     1b6:	3b 50 1c             	cmp    0x1c(%eax),%edx
     1b9:	74 1a                	je     1d5 <ext3_has_free_blocks+0x5f>
     1bb:	8b 53 48             	mov    0x48(%ebx),%edx
     1be:	31 c0                	xor    %eax,%eax
     1c0:	85 d2                	test   %edx,%edx
     1c2:	74 16                	je     1da <ext3_has_free_blocks+0x64>
     1c4:	89 d0                	mov    %edx,%eax
     1c6:	e8 fc ff ff ff       	call   1c7 <ext3_has_free_blocks+0x51>
			1c7: R_386_PC32	in_group_p
     1cb:	85 c0                	test   %eax,%eax
     1cd:	0f 95 c0             	setne  %al
     1d0:	0f b6 c0             	movzbl %al,%eax
     1d3:	eb 05                	jmp    1da <ext3_has_free_blocks+0x64>
     1d5:	b8 01 00 00 00       	mov    $0x1,%eax
     1da:	5b                   	pop    %ebx
     1db:	c3                   	ret    

000001dc <ext3_discard_reservation>:
     1dc:	57                   	push   %edi
     1dd:	89 c7                	mov    %eax,%edi
     1df:	56                   	push   %esi
     1e0:	53                   	push   %ebx
     1e1:	8b 58 b8             	mov    -0x48(%eax),%ebx
     1e4:	8b 80 a4 00 00 00    	mov    0xa4(%eax),%eax
     1ea:	85 db                	test   %ebx,%ebx
     1ec:	8b b0 84 01 00 00    	mov    0x184(%eax),%esi
     1f2:	74 4b                	je     23f <ext3_discard_reservation+0x63>
     1f4:	83 7b 18 00          	cmpl   $0x0,0x18(%ebx)
     1f8:	74 45                	je     23f <ext3_discard_reservation+0x63>
     1fa:	8d 86 cc 00 00 00    	lea    0xcc(%esi),%eax
     200:	e8 fc ff ff ff       	call   201 <ext3_discard_reservation+0x25>
			201: R_386_PC32	_spin_lock
     205:	83 7b 18 00          	cmpl   $0x0,0x18(%ebx)
     209:	74 2e                	je     239 <ext3_discard_reservation+0x5d>
     20b:	8b 87 a4 00 00 00    	mov    0xa4(%edi),%eax
     211:	c7 43 14 00 00 00 00 	movl   $0x0,0x14(%ebx)
     218:	c7 43 18 00 00 00 00 	movl   $0x0,0x18(%ebx)
     21f:	c7 43 10 00 00 00 00 	movl   $0x0,0x10(%ebx)
     226:	8b 90 84 01 00 00    	mov    0x184(%eax),%edx
     22c:	89 d8                	mov    %ebx,%eax
     22e:	81 c2 d0 00 00 00    	add    $0xd0,%edx
     234:	e8 fc ff ff ff       	call   235 <ext3_discard_reservation+0x59>
			235: R_386_PC32	rb_erase
     239:	fe 86 cc 00 00 00    	incb   0xcc(%esi)
     23f:	5b                   	pop    %ebx
     240:	5e                   	pop    %esi
     241:	5f                   	pop    %edi
     242:	c3                   	ret    

00000243 <vfs_dq_free_block>:
     243:	56                   	push   %esi
     244:	89 c6                	mov    %eax,%esi
     246:	53                   	push   %ebx
     247:	89 d0                	mov    %edx,%eax
     249:	89 ca                	mov    %ecx,%edx
     24b:	8b 4e 6c             	mov    0x6c(%esi),%ecx
     24e:	31 db                	xor    %ebx,%ebx
     250:	0f a5 c2             	shld   %cl,%eax,%edx
     253:	d3 e0                	shl    %cl,%eax
     255:	f6 c1 20             	test   $0x20,%cl
     258:	0f 45 d0             	cmovne %eax,%edx
     25b:	0f 45 c3             	cmovne %ebx,%eax
     25e:	8b 9e a4 00 00 00    	mov    0xa4(%esi),%ebx
     264:	8b 8b a8 00 00 00    	mov    0xa8(%ebx),%ecx
     26a:	f6 c1 01             	test   $0x1,%cl
     26d:	74 26                	je     295 <vfs_dq_free_block+0x52>
     26f:	f6 c1 04             	test   $0x4,%cl
     272:	74 07                	je     27b <vfs_dq_free_block+0x38>
     274:	eb 1f                	jmp    295 <vfs_dq_free_block+0x52>
     276:	80 e1 20             	and    $0x20,%cl
     279:	75 1f                	jne    29a <vfs_dq_free_block+0x57>
     27b:	8b 5b 24             	mov    0x24(%ebx),%ebx
     27e:	89 d1                	mov    %edx,%ecx
     280:	89 c2                	mov    %eax,%edx
     282:	89 f0                	mov    %esi,%eax
     284:	ff 53 10             	call   *0x10(%ebx)
     287:	89 f0                	mov    %esi,%eax
     289:	ba 07 00 00 00       	mov    $0x7,%edx
     28e:	5b                   	pop    %ebx
     28f:	5e                   	pop    %esi
     290:	e9 fc ff ff ff       	jmp    291 <vfs_dq_free_block+0x4e>
			291: R_386_PC32	__mark_inode_dirty
     295:	f6 c1 08             	test   $0x8,%cl
     298:	75 dc                	jne    276 <vfs_dq_free_block+0x33>
     29a:	89 d1                	mov    %edx,%ecx
     29c:	89 c2                	mov    %eax,%edx
     29e:	89 f0                	mov    %esi,%eax
     2a0:	e8 fc ff ff ff       	call   2a1 <vfs_dq_free_block+0x5e>
			2a1: R_386_PC32	inode_sub_bytes
     2a5:	eb e0                	jmp    287 <vfs_dq_free_block+0x44>

000002a7 <read_block_bitmap>:
     2a7:	55                   	push   %ebp
     2a8:	31 c9                	xor    %ecx,%ecx
     2aa:	57                   	push   %edi
     2ab:	31 ff                	xor    %edi,%edi
     2ad:	56                   	push   %esi
     2ae:	53                   	push   %ebx
     2af:	89 c3                	mov    %eax,%ebx
     2b1:	83 ec 10             	sub    $0x10,%esp
     2b4:	89 54 24 08          	mov    %edx,0x8(%esp)
     2b8:	e8 fc ff ff ff       	call   2b9 <read_block_bitmap+0x12>
			2b9: R_386_PC32	ext3_get_group_desc
     2bd:	85 c0                	test   %eax,%eax
     2bf:	89 c6                	mov    %eax,%esi
     2c1:	0f 84 ee 00 00 00    	je     3b5 <read_block_bitmap+0x10e>
     2c7:	8b 10                	mov    (%eax),%edx
     2c9:	31 c9                	xor    %ecx,%ecx
     2cb:	8b 83 94 00 00 00    	mov    0x94(%ebx),%eax
     2d1:	ff 73 0c             	pushl  0xc(%ebx)
     2d4:	e8 fc ff ff ff       	call   2d5 <read_block_bitmap+0x2e>
			2d5: R_386_PC32	__getblk
     2d9:	5d                   	pop    %ebp
     2da:	85 c0                	test   %eax,%eax
     2dc:	89 c7                	mov    %eax,%edi
     2de:	75 15                	jne    2f5 <read_block_bitmap+0x4e>
     2e0:	ff 36                	pushl  (%esi)
     2e2:	ff 74 24 0c          	pushl  0xc(%esp)
     2e6:	68 a4 00 00 00       	push   $0xa4
			2e7: R_386_32	.rodata.str1.1
     2eb:	68 10 00 00 00       	push   $0x10
			2ec: R_386_32	.rodata
     2f0:	e9 b7 00 00 00       	jmp    3ac <read_block_bitmap+0x105>
     2f5:	e8 fc ff ff ff       	call   2f6 <read_block_bitmap+0x4f>
			2f6: R_386_PC32	bh_uptodate_or_lock
     2fa:	85 c0                	test   %eax,%eax
     2fc:	0f 85 b3 00 00 00    	jne    3b5 <read_block_bitmap+0x10e>
     302:	89 f8                	mov    %edi,%eax
     304:	e8 fc ff ff ff       	call   305 <read_block_bitmap+0x5e>
			305: R_386_PC32	bh_submit_read
     309:	85 c0                	test   %eax,%eax
     30b:	79 24                	jns    331 <read_block_bitmap+0x8a>
     30d:	89 f8                	mov    %edi,%eax
     30f:	31 ff                	xor    %edi,%edi
     311:	e8 fc ff ff ff       	call   312 <read_block_bitmap+0x6b>
			312: R_386_PC32	__brelse
     316:	ff 36                	pushl  (%esi)
     318:	ff 74 24 0c          	pushl  0xc(%esp)
     31c:	68 a4 00 00 00       	push   $0xa4
			31d: R_386_32	.rodata.str1.1
     321:	68 10 00 00 00       	push   $0x10
			322: R_386_32	.rodata
     326:	53                   	push   %ebx
     327:	e8 fc ff ff ff       	call   328 <read_block_bitmap+0x81>
			328: R_386_PC32	ext3_error
     32c:	e9 81 00 00 00       	jmp    3b2 <read_block_bitmap+0x10b>
     331:	8b 93 84 01 00 00    	mov    0x184(%ebx),%edx
     337:	8b 44 24 08          	mov    0x8(%esp),%eax
     33b:	0f af 42 10          	imul   0x10(%edx),%eax
     33f:	89 04 24             	mov    %eax,(%esp)
     342:	8b 4a 34             	mov    0x34(%edx),%ecx
     345:	8b 41 14             	mov    0x14(%ecx),%eax
     348:	01 04 24             	add    %eax,(%esp)
     34b:	8b 2e                	mov    (%esi),%ebp
     34d:	8b 4f 18             	mov    0x18(%edi),%ecx
     350:	89 e8                	mov    %ebp,%eax
     352:	89 4c 24 0c          	mov    %ecx,0xc(%esp)
     356:	2b 04 24             	sub    (%esp),%eax
     359:	0f a3 01             	bt     %eax,(%ecx)
     35c:	19 c9                	sbb    %ecx,%ecx
     35e:	85 c9                	test   %ecx,%ecx
     360:	74 3b                	je     39d <read_block_bitmap+0xf6>
     362:	8b 6e 04             	mov    0x4(%esi),%ebp
     365:	8b 4c 24 0c          	mov    0xc(%esp),%ecx
     369:	89 e8                	mov    %ebp,%eax
     36b:	2b 04 24             	sub    (%esp),%eax
     36e:	0f a3 01             	bt     %eax,(%ecx)
     371:	19 c9                	sbb    %ecx,%ecx
     373:	85 c9                	test   %ecx,%ecx
     375:	74 26                	je     39d <read_block_bitmap+0xf6>
     377:	8b 6e 08             	mov    0x8(%esi),%ebp
     37a:	8b 42 18             	mov    0x18(%edx),%eax
     37d:	89 ee                	mov    %ebp,%esi
     37f:	2b 34 24             	sub    (%esp),%esi
     382:	8d 14 06             	lea    (%esi,%eax,1),%edx
     385:	8b 44 24 0c          	mov    0xc(%esp),%eax
     389:	89 f1                	mov    %esi,%ecx
     38b:	e8 fc ff ff ff       	call   38c <read_block_bitmap+0xe5>
			38c: R_386_PC32	find_next_zero_bit
     390:	8b 93 84 01 00 00    	mov    0x184(%ebx),%edx
     396:	03 72 18             	add    0x18(%edx),%esi
     399:	39 f0                	cmp    %esi,%eax
     39b:	73 18                	jae    3b5 <read_block_bitmap+0x10e>
     39d:	55                   	push   %ebp
     39e:	ff 74 24 0c          	pushl  0xc(%esp)
     3a2:	68 e3 00 00 00       	push   $0xe3
			3a3: R_386_32	.rodata.str1.1
     3a7:	68 24 00 00 00       	push   $0x24
			3a8: R_386_32	.rodata
     3ac:	53                   	push   %ebx
     3ad:	e8 fc ff ff ff       	call   3ae <read_block_bitmap+0x107>
			3ae: R_386_PC32	ext3_error
     3b2:	83 c4 14             	add    $0x14,%esp
     3b5:	83 c4 10             	add    $0x10,%esp
     3b8:	89 f8                	mov    %edi,%eax
     3ba:	5b                   	pop    %ebx
     3bb:	5e                   	pop    %esi
     3bc:	5f                   	pop    %edi
     3bd:	5d                   	pop    %ebp
     3be:	c3                   	ret    

000003bf <ext3_should_retry_alloc>:
     3bf:	56                   	push   %esi
     3c0:	89 d6                	mov    %edx,%esi
     3c2:	53                   	push   %ebx
     3c3:	89 c3                	mov    %eax,%ebx
     3c5:	8b 80 84 01 00 00    	mov    0x184(%eax),%eax
     3cb:	e8 a6 fd ff ff       	call   176 <ext3_has_free_blocks>
     3d0:	85 c0                	test   %eax,%eax
     3d2:	74 1f                	je     3f3 <ext3_should_retry_alloc+0x34>
     3d4:	8b 06                	mov    (%esi),%eax
     3d6:	8d 50 01             	lea    0x1(%eax),%edx
     3d9:	83 f8 03             	cmp    $0x3,%eax
     3dc:	89 16                	mov    %edx,(%esi)
     3de:	7f 13                	jg     3f3 <ext3_should_retry_alloc+0x34>
     3e0:	8b 83 84 01 00 00    	mov    0x184(%ebx),%eax
     3e6:	5b                   	pop    %ebx
     3e7:	5e                   	pop    %esi
     3e8:	8b 80 f4 00 00 00    	mov    0xf4(%eax),%eax
     3ee:	e9 fc ff ff ff       	jmp    3ef <ext3_should_retry_alloc+0x30>
			3ef: R_386_PC32	journal_force_commit_nested
     3f3:	31 c0                	xor    %eax,%eax
     3f5:	5b                   	pop    %ebx
     3f6:	5e                   	pop    %esi
     3f7:	c3                   	ret    

000003f8 <T.581>:
     3f8:	55                   	push   %ebp
     3f9:	57                   	push   %edi
     3fa:	31 ff                	xor    %edi,%edi
     3fc:	56                   	push   %esi
     3fd:	89 d6                	mov    %edx,%esi
     3ff:	53                   	push   %ebx
     400:	e8 fc ff ff ff       	call   401 <T.581+0x9>
			401: R_386_PC32	rb_first
     405:	56                   	push   %esi
     406:	89 c3                	mov    %eax,%ebx
     408:	68 18 01 00 00       	push   $0x118
			409: R_386_32	.rodata.str1.1
     40d:	31 f6                	xor    %esi,%esi
     40f:	e8 fc ff ff ff       	call   410 <T.581+0x18>
			410: R_386_PC32	printk
     414:	59                   	pop    %ecx
     415:	5d                   	pop    %ebp
     416:	eb 5d                	jmp    475 <T.581+0x7d>
     418:	ff 73 18             	pushl  0x18(%ebx)
     41b:	89 dd                	mov    %ebx,%ebp
     41d:	ff 73 14             	pushl  0x14(%ebx)
     420:	53                   	push   %ebx
     421:	68 48 01 00 00       	push   $0x148
			422: R_386_32	.rodata.str1.1
     426:	e8 fc ff ff ff       	call   427 <T.581+0x2f>
			427: R_386_PC32	printk
     42b:	8b 43 14             	mov    0x14(%ebx),%eax
     42e:	83 c4 10             	add    $0x10,%esp
     431:	85 c0                	test   %eax,%eax
     433:	74 17                	je     44c <T.581+0x54>
     435:	3b 43 18             	cmp    0x18(%ebx),%eax
     438:	72 12                	jb     44c <T.581+0x54>
     43a:	53                   	push   %ebx
     43b:	be 01 00 00 00       	mov    $0x1,%esi
     440:	68 78 01 00 00       	push   $0x178
			441: R_386_32	.rodata.str1.1
     445:	e8 fc ff ff ff       	call   446 <T.581+0x4e>
			446: R_386_PC32	printk
     44a:	58                   	pop    %eax
     44b:	5a                   	pop    %edx
     44c:	85 ff                	test   %edi,%edi
     44e:	74 1a                	je     46a <T.581+0x72>
     450:	8b 47 18             	mov    0x18(%edi),%eax
     453:	3b 43 14             	cmp    0x14(%ebx),%eax
     456:	72 12                	jb     46a <T.581+0x72>
     458:	53                   	push   %ebx
     459:	be 01 00 00 00       	mov    $0x1,%esi
     45e:	68 9b 01 00 00       	push   $0x19b
			45f: R_386_32	.rodata.str1.1
     463:	e8 fc ff ff ff       	call   464 <T.581+0x6c>
			464: R_386_PC32	printk
     468:	5a                   	pop    %edx
     469:	59                   	pop    %ecx
     46a:	89 d8                	mov    %ebx,%eax
     46c:	89 ef                	mov    %ebp,%edi
     46e:	e8 fc ff ff ff       	call   46f <T.581+0x77>
			46f: R_386_PC32	rb_next
     473:	89 c3                	mov    %eax,%ebx
     475:	85 db                	test   %ebx,%ebx
     477:	75 9f                	jne    418 <T.581+0x20>
     479:	68 c4 01 00 00       	push   $0x1c4
			47a: R_386_32	.rodata.str1.1
     47e:	e8 fc ff ff ff       	call   47f <T.581+0x87>
			47f: R_386_PC32	printk
     483:	85 f6                	test   %esi,%esi
     485:	58                   	pop    %eax
     486:	74 04                	je     48c <T.581+0x94>
     488:	0f 0b                	ud2a   
     48a:	eb fe                	jmp    48a <T.581+0x92>
     48c:	5b                   	pop    %ebx
     48d:	5e                   	pop    %esi
     48e:	5f                   	pop    %edi
     48f:	5d                   	pop    %ebp
     490:	c3                   	ret    

00000491 <ext3_rsv_window_add>:
     491:	57                   	push   %edi
     492:	89 d1                	mov    %edx,%ecx
     494:	56                   	push   %esi
     495:	31 f6                	xor    %esi,%esi
     497:	53                   	push   %ebx
     498:	8b 80 84 01 00 00    	mov    0x184(%eax),%eax
     49e:	8b 7a 14             	mov    0x14(%edx),%edi
     4a1:	05 d0 00 00 00       	add    $0xd0,%eax
     4a6:	89 c3                	mov    %eax,%ebx
     4a8:	eb 22                	jmp    4cc <ext3_rsv_window_add+0x3b>
     4aa:	3b 7a 14             	cmp    0x14(%edx),%edi
     4ad:	8d 5a 08             	lea    0x8(%edx),%ebx
     4b0:	72 18                	jb     4ca <ext3_rsv_window_add+0x39>
     4b2:	3b 7a 18             	cmp    0x18(%edx),%edi
     4b5:	76 05                	jbe    4bc <ext3_rsv_window_add+0x2b>
     4b7:	8d 5a 04             	lea    0x4(%edx),%ebx
     4ba:	eb 0e                	jmp    4ca <ext3_rsv_window_add+0x39>
     4bc:	ba 70 00 00 00       	mov    $0x70,%edx
			4bd: R_386_32	.rodata
     4c1:	e8 32 ff ff ff       	call   3f8 <T.581>
     4c6:	0f 0b                	ud2a   
     4c8:	eb fe                	jmp    4c8 <ext3_rsv_window_add+0x37>
     4ca:	89 d6                	mov    %edx,%esi
     4cc:	8b 13                	mov    (%ebx),%edx
     4ce:	85 d2                	test   %edx,%edx
     4d0:	75 d8                	jne    4aa <ext3_rsv_window_add+0x19>
     4d2:	89 31                	mov    %esi,(%ecx)
     4d4:	89 c2                	mov    %eax,%edx
     4d6:	89 c8                	mov    %ecx,%eax
     4d8:	c7 41 04 00 00 00 00 	movl   $0x0,0x4(%ecx)
     4df:	c7 41 08 00 00 00 00 	movl   $0x0,0x8(%ecx)
     4e6:	89 0b                	mov    %ecx,(%ebx)
     4e8:	5b                   	pop    %ebx
     4e9:	5e                   	pop    %esi
     4ea:	5f                   	pop    %edi
     4eb:	e9 fc ff ff ff       	jmp    4ec <ext3_rsv_window_add+0x5b>
			4ec: R_386_PC32	rb_insert_color

000004f0 <ext3_init_block_alloc_info>:
     4f0:	55                   	push   %ebp
     4f1:	ba 50 00 00 00       	mov    $0x50,%edx
     4f6:	57                   	push   %edi
     4f7:	89 c7                	mov    %eax,%edi
     4f9:	56                   	push   %esi
     4fa:	53                   	push   %ebx
     4fb:	83 ec 04             	sub    $0x4,%esp
     4fe:	8b 80 a4 00 00 00    	mov    0xa4(%eax),%eax
     504:	89 04 24             	mov    %eax,(%esp)
     507:	b8 18 06 00 00       	mov    $0x618,%eax
			508: R_386_32	kmalloc_caches
     50c:	e8 fc ff ff ff       	call   50d <ext3_init_block_alloc_info+0x1d>
			50d: R_386_PC32	kmem_cache_alloc
     511:	8b 2d 1c 06 00 00    	mov    0x61c,%ebp
			513: R_386_32	kmalloc_caches
     517:	83 3d 04 00 00 00 00 	cmpl   $0x0,0x4
			519: R_386_32	__tracepoint_kmalloc
     51e:	89 c3                	mov    %eax,%ebx
     520:	74 25                	je     547 <ext3_init_block_alloc_info+0x57>
     522:	8b 35 10 00 00 00    	mov    0x10,%esi
			524: R_386_32	__tracepoint_kmalloc
     528:	85 f6                	test   %esi,%esi
     52a:	74 1b                	je     547 <ext3_init_block_alloc_info+0x57>
     52c:	6a 50                	push   $0x50
     52e:	b9 24 00 00 00       	mov    $0x24,%ecx
     533:	89 da                	mov    %ebx,%edx
     535:	b8 f0 04 00 00       	mov    $0x4f0,%eax
			536: R_386_32	.text
     53a:	55                   	push   %ebp
     53b:	ff 16                	call   *(%esi)
     53d:	83 c6 04             	add    $0x4,%esi
     540:	83 3e 00             	cmpl   $0x0,(%esi)
     543:	5a                   	pop    %edx
     544:	59                   	pop    %ecx
     545:	eb e3                	jmp    52a <ext3_init_block_alloc_info+0x3a>
     547:	85 db                	test   %ebx,%ebx
     549:	74 41                	je     58c <ext3_init_block_alloc_info+0x9c>
     54b:	c7 43 14 00 00 00 00 	movl   $0x0,0x14(%ebx)
     552:	c7 43 18 00 00 00 00 	movl   $0x0,0x18(%ebx)
     559:	8b 14 24             	mov    (%esp),%edx
     55c:	8b 82 84 01 00 00    	mov    0x184(%edx),%eax
     562:	8b 40 3c             	mov    0x3c(%eax),%eax
     565:	c7 43 10 00 00 00 00 	movl   $0x0,0x10(%ebx)
     56c:	c7 43 1c 00 00 00 00 	movl   $0x0,0x1c(%ebx)
     573:	c7 43 20 00 00 00 00 	movl   $0x0,0x20(%ebx)
     57a:	25 00 00 01 00       	and    $0x10000,%eax
     57f:	83 f8 01             	cmp    $0x1,%eax
     582:	19 c0                	sbb    %eax,%eax
     584:	f7 d0                	not    %eax
     586:	83 e0 08             	and    $0x8,%eax
     589:	89 43 0c             	mov    %eax,0xc(%ebx)
     58c:	89 5f b8             	mov    %ebx,-0x48(%edi)
     58f:	58                   	pop    %eax
     590:	5b                   	pop    %ebx
     591:	5e                   	pop    %esi
     592:	5f                   	pop    %edi
     593:	5d                   	pop    %ebp
     594:	c3                   	ret    

00000595 <ext3_test_allocatable>:
     595:	56                   	push   %esi
     596:	8b 4a 18             	mov    0x18(%edx),%ecx
     599:	53                   	push   %ebx
     59a:	8b 5a 24             	mov    0x24(%edx),%ebx
     59d:	0f a3 01             	bt     %eax,(%ecx)
     5a0:	19 f6                	sbb    %esi,%esi
     5a2:	31 c9                	xor    %ecx,%ecx
     5a4:	85 f6                	test   %esi,%esi
     5a6:	75 33                	jne    5db <ext3_test_allocatable+0x46>
     5a8:	eb 0c                	jmp    5b6 <ext3_test_allocatable+0x21>
     5aa:	f3 90                	pause  
     5ac:	8b 0a                	mov    (%edx),%ecx
     5ae:	81 e1 00 00 40 00    	and    $0x400000,%ecx
     5b4:	75 f4                	jne    5aa <ext3_test_allocatable+0x15>
     5b6:	f0 0f ba 2a 16       	lock btsl $0x16,(%edx)
     5bb:	19 c9                	sbb    %ecx,%ecx
     5bd:	85 c9                	test   %ecx,%ecx
     5bf:	75 eb                	jne    5ac <ext3_test_allocatable+0x17>
     5c1:	8b 5b 14             	mov    0x14(%ebx),%ebx
     5c4:	b1 01                	mov    $0x1,%cl
     5c6:	85 db                	test   %ebx,%ebx
     5c8:	74 0c                	je     5d6 <ext3_test_allocatable+0x41>
     5ca:	0f a3 03             	bt     %eax,(%ebx)
     5cd:	19 c0                	sbb    %eax,%eax
     5cf:	31 c9                	xor    %ecx,%ecx
     5d1:	85 c0                	test   %eax,%eax
     5d3:	0f 94 c1             	sete   %cl
     5d6:	f0 80 62 02 bf       	lock andb $0xbf,0x2(%edx)
     5db:	89 c8                	mov    %ecx,%eax
     5dd:	5b                   	pop    %ebx
     5de:	5e                   	pop    %esi
     5df:	c3                   	ret    

000005e0 <bitmap_search_next_usable_block>:
     5e0:	55                   	push   %ebp
     5e1:	89 c5                	mov    %eax,%ebp
     5e3:	57                   	push   %edi
     5e4:	56                   	push   %esi
     5e5:	53                   	push   %ebx
     5e6:	89 d3                	mov    %edx,%ebx
     5e8:	83 ec 0c             	sub    $0xc,%esp
     5eb:	89 0c 24             	mov    %ecx,(%esp)
     5ee:	8b 42 24             	mov    0x24(%edx),%eax
     5f1:	8d 52 02             	lea    0x2(%edx),%edx
     5f4:	89 54 24 04          	mov    %edx,0x4(%esp)
     5f8:	89 44 24 08          	mov    %eax,0x8(%esp)
     5fc:	eb 58                	jmp    656 <bitmap_search_next_usable_block+0x76>
     5fe:	8b 43 18             	mov    0x18(%ebx),%eax
     601:	89 e9                	mov    %ebp,%ecx
     603:	8b 14 24             	mov    (%esp),%edx
     606:	e8 fc ff ff ff       	call   607 <bitmap_search_next_usable_block+0x27>
			607: R_386_PC32	find_next_zero_bit
     60b:	3b 04 24             	cmp    (%esp),%eax
     60e:	89 c6                	mov    %eax,%esi
     610:	89 c7                	mov    %eax,%edi
     612:	7d 47                	jge    65b <bitmap_search_next_usable_block+0x7b>
     614:	89 da                	mov    %ebx,%edx
     616:	e8 7a ff ff ff       	call   595 <ext3_test_allocatable>
     61b:	85 c0                	test   %eax,%eax
     61d:	74 0d                	je     62c <bitmap_search_next_usable_block+0x4c>
     61f:	eb 3d                	jmp    65e <bitmap_search_next_usable_block+0x7e>
     621:	f3 90                	pause  
     623:	8b 03                	mov    (%ebx),%eax
     625:	a9 00 00 40 00       	test   $0x400000,%eax
     62a:	75 f5                	jne    621 <bitmap_search_next_usable_block+0x41>
     62c:	f0 0f ba 2b 16       	lock btsl $0x16,(%ebx)
     631:	19 c0                	sbb    %eax,%eax
     633:	85 c0                	test   %eax,%eax
     635:	75 ec                	jne    623 <bitmap_search_next_usable_block+0x43>
     637:	8b 54 24 08          	mov    0x8(%esp),%edx
     63b:	8b 42 14             	mov    0x14(%edx),%eax
     63e:	85 c0                	test   %eax,%eax
     640:	74 0c                	je     64e <bitmap_search_next_usable_block+0x6e>
     642:	8b 14 24             	mov    (%esp),%edx
     645:	89 f1                	mov    %esi,%ecx
     647:	e8 fc ff ff ff       	call   648 <bitmap_search_next_usable_block+0x68>
			648: R_386_PC32	find_next_zero_bit
     64c:	89 c5                	mov    %eax,%ebp
     64e:	8b 44 24 04          	mov    0x4(%esp),%eax
     652:	f0 80 20 bf          	lock andb $0xbf,(%eax)
     656:	3b 2c 24             	cmp    (%esp),%ebp
     659:	7c a3                	jl     5fe <bitmap_search_next_usable_block+0x1e>
     65b:	83 cf ff             	or     $0xffffffff,%edi
     65e:	83 c4 0c             	add    $0xc,%esp
     661:	89 f8                	mov    %edi,%eax
     663:	5b                   	pop    %ebx
     664:	5e                   	pop    %esi
     665:	5f                   	pop    %edi
     666:	5d                   	pop    %ebp
     667:	c3                   	ret    

00000668 <claim_block>:
     668:	56                   	push   %esi
     669:	8b 41 18             	mov    0x18(%ecx),%eax
     66c:	53                   	push   %ebx
     66d:	8b 59 24             	mov    0x24(%ecx),%ebx
     670:	f0 0f ab 10          	lock bts %edx,(%eax)
     674:	19 f6                	sbb    %esi,%esi
     676:	31 c0                	xor    %eax,%eax
     678:	85 f6                	test   %esi,%esi
     67a:	75 3f                	jne    6bb <claim_block+0x53>
     67c:	eb 0b                	jmp    689 <claim_block+0x21>
     67e:	f3 90                	pause  
     680:	8b 01                	mov    (%ecx),%eax
     682:	a9 00 00 40 00       	test   $0x400000,%eax
     687:	75 f5                	jne    67e <claim_block+0x16>
     689:	f0 0f ba 29 16       	lock btsl $0x16,(%ecx)
     68e:	19 c0                	sbb    %eax,%eax
     690:	85 c0                	test   %eax,%eax
     692:	75 ec                	jne    680 <claim_block+0x18>
     694:	8b 43 14             	mov    0x14(%ebx),%eax
     697:	85 c0                	test   %eax,%eax
     699:	74 16                	je     6b1 <claim_block+0x49>
     69b:	0f a3 10             	bt     %edx,(%eax)
     69e:	19 c0                	sbb    %eax,%eax
     6a0:	85 c0                	test   %eax,%eax
     6a2:	74 0d                	je     6b1 <claim_block+0x49>
     6a4:	8b 41 18             	mov    0x18(%ecx),%eax
     6a7:	f0 0f b3 10          	lock btr %edx,(%eax)
     6ab:	19 d2                	sbb    %edx,%edx
     6ad:	31 c0                	xor    %eax,%eax
     6af:	eb 05                	jmp    6b6 <claim_block+0x4e>
     6b1:	b8 01 00 00 00       	mov    $0x1,%eax
     6b6:	f0 80 61 02 bf       	lock andb $0xbf,0x2(%ecx)
     6bb:	5b                   	pop    %ebx
     6bc:	5e                   	pop    %esi
     6bd:	c3                   	ret    

000006be <ext3_try_to_allocate>:
     6be:	55                   	push   %ebp
     6bf:	89 c5                	mov    %eax,%ebp
     6c1:	57                   	push   %edi
     6c2:	56                   	push   %esi
     6c3:	53                   	push   %ebx
     6c4:	83 ec 20             	sub    $0x20,%esp
     6c7:	8b 90 84 01 00 00    	mov    0x184(%eax),%edx
     6cd:	83 7c 24 40 00       	cmpl   $0x0,0x40(%esp)
     6d2:	8b 7c 24 34          	mov    0x34(%esp),%edi
     6d6:	8b 5c 24 38          	mov    0x38(%esp),%ebx
     6da:	74 52                	je     72e <ext3_try_to_allocate+0x70>
     6dc:	8b 42 10             	mov    0x10(%edx),%eax
     6df:	8b 74 24 40          	mov    0x40(%esp),%esi
     6e3:	89 44 24 08          	mov    %eax,0x8(%esp)
     6e7:	8b 52 34             	mov    0x34(%edx),%edx
     6ea:	0f af c1             	imul   %ecx,%eax
     6ed:	03 42 14             	add    0x14(%edx),%eax
     6f0:	8b 16                	mov    (%esi),%edx
     6f2:	89 d6                	mov    %edx,%esi
     6f4:	29 c6                	sub    %eax,%esi
     6f6:	89 74 24 0c          	mov    %esi,0xc(%esp)
     6fa:	31 f6                	xor    %esi,%esi
     6fc:	39 c2                	cmp    %eax,%edx
     6fe:	8b 54 24 40          	mov    0x40(%esp),%edx
     702:	0f 43 74 24 0c       	cmovae 0xc(%esp),%esi
     707:	8b 52 04             	mov    0x4(%edx),%edx
     70a:	89 14 24             	mov    %edx,(%esp)
     70d:	42                   	inc    %edx
     70e:	29 c2                	sub    %eax,%edx
     710:	3b 54 24 08          	cmp    0x8(%esp),%edx
     714:	0f 47 54 24 08       	cmova  0x8(%esp),%edx
     719:	39 d3                	cmp    %edx,%ebx
     71b:	89 54 24 08          	mov    %edx,0x8(%esp)
     71f:	7d 04                	jge    725 <ext3_try_to_allocate+0x67>
     721:	39 de                	cmp    %ebx,%esi
     723:	7e 05                	jle    72a <ext3_try_to_allocate+0x6c>
     725:	83 cb ff             	or     $0xffffffff,%ebx
     728:	eb 14                	jmp    73e <ext3_try_to_allocate+0x80>
     72a:	89 de                	mov    %ebx,%esi
     72c:	eb 10                	jmp    73e <ext3_try_to_allocate+0x80>
     72e:	8b 74 24 40          	mov    0x40(%esp),%esi
     732:	85 db                	test   %ebx,%ebx
     734:	8b 52 10             	mov    0x10(%edx),%edx
     737:	0f 49 f3             	cmovns %ebx,%esi
     73a:	89 54 24 08          	mov    %edx,0x8(%esp)
     73e:	8b 85 84 01 00 00    	mov    0x184(%ebp),%eax
     744:	3b 70 10             	cmp    0x10(%eax),%esi
     747:	76 04                	jbe    74d <ext3_try_to_allocate+0x8f>
     749:	0f 0b                	ud2a   
     74b:	eb fe                	jmp    74b <ext3_try_to_allocate+0x8d>
     74d:	8b 44 24 08          	mov    0x8(%esp),%eax
     751:	83 e1 7f             	and    $0x7f,%ecx
     754:	89 ca                	mov    %ecx,%edx
     756:	c1 e2 05             	shl    $0x5,%edx
     759:	89 4c 24 18          	mov    %ecx,0x18(%esp)
     75d:	83 c0 07             	add    $0x7,%eax
     760:	c1 f8 03             	sar    $0x3,%eax
     763:	89 44 24 14          	mov    %eax,0x14(%esp)
     767:	89 54 24 1c          	mov    %edx,0x1c(%esp)
     76b:	85 db                	test   %ebx,%ebx
     76d:	78 11                	js     780 <ext3_try_to_allocate+0xc2>
     76f:	89 fa                	mov    %edi,%edx
     771:	89 d8                	mov    %ebx,%eax
     773:	e8 1d fe ff ff       	call   595 <ext3_test_allocatable>
     778:	85 c0                	test   %eax,%eax
     77a:	0f 85 cf 00 00 00    	jne    84f <ext3_try_to_allocate+0x191>
     780:	83 fe 00             	cmp    $0x0,%esi
     783:	7e 36                	jle    7bb <ext3_try_to_allocate+0xfd>
     785:	8d 46 3f             	lea    0x3f(%esi),%eax
     788:	89 f1                	mov    %esi,%ecx
     78a:	83 e0 c0             	and    $0xffffffc0,%eax
     78d:	3b 44 24 08          	cmp    0x8(%esp),%eax
     791:	0f 4f 44 24 08       	cmovg  0x8(%esp),%eax
     796:	89 44 24 0c          	mov    %eax,0xc(%esp)
     79a:	8b 47 18             	mov    0x18(%edi),%eax
     79d:	8b 54 24 0c          	mov    0xc(%esp),%edx
     7a1:	e8 fc ff ff ff       	call   7a2 <ext3_try_to_allocate+0xe4>
			7a2: R_386_PC32	find_next_zero_bit
     7a6:	3b 44 24 0c          	cmp    0xc(%esp),%eax
     7aa:	89 c3                	mov    %eax,%ebx
     7ac:	7d 19                	jge    7c7 <ext3_try_to_allocate+0x109>
     7ae:	89 fa                	mov    %edi,%edx
     7b0:	e8 e0 fd ff ff       	call   595 <ext3_test_allocatable>
     7b5:	85 c0                	test   %eax,%eax
     7b7:	74 0e                	je     7c7 <ext3_try_to_allocate+0x109>
     7b9:	eb 59                	jmp    814 <ext3_try_to_allocate+0x156>
     7bb:	74 0a                	je     7c7 <ext3_try_to_allocate+0x109>
     7bd:	c7 44 24 0c 00 00 00 	movl   $0x0,0xc(%esp)
     7c4:	00 
     7c5:	eb 04                	jmp    7cb <ext3_try_to_allocate+0x10d>
     7c7:	89 74 24 0c          	mov    %esi,0xc(%esp)
     7cb:	8b 44 24 0c          	mov    0xc(%esp),%eax
     7cf:	31 d2                	xor    %edx,%edx
     7d1:	8b 4c 24 14          	mov    0x14(%esp),%ecx
     7d5:	c1 f8 03             	sar    $0x3,%eax
     7d8:	29 c1                	sub    %eax,%ecx
     7da:	03 47 18             	add    0x18(%edi),%eax
     7dd:	e8 fc ff ff ff       	call   7de <ext3_try_to_allocate+0x120>
			7de: R_386_PC32	memscan
     7e2:	2b 47 18             	sub    0x18(%edi),%eax
     7e5:	8d 1c c5 00 00 00 00 	lea    0x0(,%eax,8),%ebx
     7ec:	39 f3                	cmp    %esi,%ebx
     7ee:	7c 13                	jl     803 <ext3_try_to_allocate+0x145>
     7f0:	3b 5c 24 08          	cmp    0x8(%esp),%ebx
     7f4:	7d 0d                	jge    803 <ext3_try_to_allocate+0x145>
     7f6:	89 fa                	mov    %edi,%edx
     7f8:	89 d8                	mov    %ebx,%eax
     7fa:	e8 96 fd ff ff       	call   595 <ext3_test_allocatable>
     7ff:	85 c0                	test   %eax,%eax
     801:	75 11                	jne    814 <ext3_try_to_allocate+0x156>
     803:	8b 4c 24 08          	mov    0x8(%esp),%ecx
     807:	89 fa                	mov    %edi,%edx
     809:	8b 44 24 0c          	mov    0xc(%esp),%eax
     80d:	e8 ce fd ff ff       	call   5e0 <bitmap_search_next_usable_block>
     812:	89 c3                	mov    %eax,%ebx
     814:	85 db                	test   %ebx,%ebx
     816:	0f 88 bb 00 00 00    	js     8d7 <ext3_try_to_allocate+0x219>
     81c:	31 c9                	xor    %ecx,%ecx
     81e:	83 7c 24 40 00       	cmpl   $0x0,0x40(%esp)
     823:	75 2a                	jne    84f <ext3_try_to_allocate+0x191>
     825:	eb 05                	jmp    82c <ext3_try_to_allocate+0x16e>
     827:	8b 5c 24 0c          	mov    0xc(%esp),%ebx
     82b:	41                   	inc    %ecx
     82c:	39 f3                	cmp    %esi,%ebx
     82e:	7e 1f                	jle    84f <ext3_try_to_allocate+0x191>
     830:	83 f9 06             	cmp    $0x6,%ecx
     833:	7f 1a                	jg     84f <ext3_try_to_allocate+0x191>
     835:	8d 43 ff             	lea    -0x1(%ebx),%eax
     838:	89 fa                	mov    %edi,%edx
     83a:	89 4c 24 04          	mov    %ecx,0x4(%esp)
     83e:	89 44 24 0c          	mov    %eax,0xc(%esp)
     842:	e8 4e fd ff ff       	call   595 <ext3_test_allocatable>
     847:	8b 4c 24 04          	mov    0x4(%esp),%ecx
     84b:	85 c0                	test   %eax,%eax
     84d:	75 d8                	jne    827 <ext3_try_to_allocate+0x169>
     84f:	8b 85 84 01 00 00    	mov    0x184(%ebp),%eax
     855:	89 da                	mov    %ebx,%edx
     857:	89 f9                	mov    %edi,%ecx
     859:	8d 5b 01             	lea    0x1(%ebx),%ebx
     85c:	8b 80 c8 00 00 00    	mov    0xc8(%eax),%eax
     862:	03 44 24 1c          	add    0x1c(%esp),%eax
     866:	e8 fd fd ff ff       	call   668 <claim_block>
     86b:	85 c0                	test   %eax,%eax
     86d:	75 0e                	jne    87d <ext3_try_to_allocate+0x1bf>
     86f:	3b 5c 24 08          	cmp    0x8(%esp),%ebx
     873:	89 de                	mov    %ebx,%esi
     875:	0f 8c f0 fe ff ff    	jl     76b <ext3_try_to_allocate+0xad>
     87b:	eb 5a                	jmp    8d7 <ext3_try_to_allocate+0x219>
     87d:	8b 54 24 18          	mov    0x18(%esp),%edx
     881:	89 de                	mov    %ebx,%esi
     883:	bb 01 00 00 00       	mov    $0x1,%ebx
     888:	c1 e2 05             	shl    $0x5,%edx
     88b:	89 54 24 10          	mov    %edx,0x10(%esp)
     88f:	eb 02                	jmp    893 <ext3_try_to_allocate+0x1d5>
     891:	43                   	inc    %ebx
     892:	46                   	inc    %esi
     893:	3b 74 24 08          	cmp    0x8(%esp),%esi
     897:	7d 32                	jge    8cb <ext3_try_to_allocate+0x20d>
     899:	8b 44 24 3c          	mov    0x3c(%esp),%eax
     89d:	3b 18                	cmp    (%eax),%ebx
     89f:	73 2a                	jae    8cb <ext3_try_to_allocate+0x20d>
     8a1:	89 fa                	mov    %edi,%edx
     8a3:	89 f0                	mov    %esi,%eax
     8a5:	e8 eb fc ff ff       	call   595 <ext3_test_allocatable>
     8aa:	85 c0                	test   %eax,%eax
     8ac:	74 1d                	je     8cb <ext3_try_to_allocate+0x20d>
     8ae:	8b 85 84 01 00 00    	mov    0x184(%ebp),%eax
     8b4:	89 f9                	mov    %edi,%ecx
     8b6:	89 f2                	mov    %esi,%edx
     8b8:	8b 80 c8 00 00 00    	mov    0xc8(%eax),%eax
     8be:	03 44 24 10          	add    0x10(%esp),%eax
     8c2:	e8 a1 fd ff ff       	call   668 <claim_block>
     8c7:	85 c0                	test   %eax,%eax
     8c9:	75 c6                	jne    891 <ext3_try_to_allocate+0x1d3>
     8cb:	8b 54 24 3c          	mov    0x3c(%esp),%edx
     8cf:	89 f0                	mov    %esi,%eax
     8d1:	29 d8                	sub    %ebx,%eax
     8d3:	89 1a                	mov    %ebx,(%edx)
     8d5:	eb 0d                	jmp    8e4 <ext3_try_to_allocate+0x226>
     8d7:	8b 74 24 3c          	mov    0x3c(%esp),%esi
     8db:	83 c8 ff             	or     $0xffffffff,%eax
     8de:	c7 06 00 00 00 00    	movl   $0x0,(%esi)
     8e4:	83 c4 20             	add    $0x20,%esp
     8e7:	5b                   	pop    %ebx
     8e8:	5e                   	pop    %esi
     8e9:	5f                   	pop    %edi
     8ea:	5d                   	pop    %ebp
     8eb:	c3                   	ret    

000008ec <ext3_try_to_allocate_with_rsv>:
     8ec:	55                   	push   %ebp
     8ed:	57                   	push   %edi
     8ee:	56                   	push   %esi
     8ef:	89 c6                	mov    %eax,%esi
     8f1:	53                   	push   %ebx
     8f2:	83 ec 38             	sub    $0x38,%esp
     8f5:	89 54 24 14          	mov    %edx,0x14(%esp)
     8f9:	8b 54 24 58          	mov    0x58(%esp),%edx
     8fd:	89 4c 24 0c          	mov    %ecx,0xc(%esp)
     901:	8b 4c 24 5c          	mov    0x5c(%esp),%ecx
     905:	8b 5c 24 54          	mov    0x54(%esp),%ebx
     909:	8b 02                	mov    (%edx),%eax
     90b:	89 44 24 34          	mov    %eax,0x34(%esp)
     90f:	b8 3c 00 00 00       	mov    $0x3c,%eax
			910: R_386_32	.rodata
     914:	c7 01 00 00 00 00    	movl   $0x0,(%ecx)
     91a:	8b 4c 24 4c          	mov    0x4c(%esp),%ecx
     91e:	8b 54 24 14          	mov    0x14(%esp),%edx
     922:	e8 fc ff ff ff       	call   923 <ext3_try_to_allocate_with_rsv+0x37>
			923: R_386_PC32	__ext3_journal_get_undo_access
     927:	85 c0                	test   %eax,%eax
     929:	0f 85 e9 03 00 00    	jne    d18 <ext3_try_to_allocate_with_rsv+0x42c>
     92f:	85 db                	test   %ebx,%ebx
     931:	75 2f                	jne    962 <ext3_try_to_allocate_with_rsv+0x76>
     933:	6a 00                	push   $0x0
     935:	89 f0                	mov    %esi,%eax
     937:	ff 74 24 5c          	pushl  0x5c(%esp)
     93b:	ff 74 24 58          	pushl  0x58(%esp)
     93f:	ff 74 24 58          	pushl  0x58(%esp)
     943:	8b 4c 24 1c          	mov    0x1c(%esp),%ecx
     947:	8b 54 24 24          	mov    0x24(%esp),%edx
     94b:	e8 6e fd ff ff       	call   6be <ext3_try_to_allocate>
     950:	83 c4 10             	add    $0x10,%esp
     953:	85 c0                	test   %eax,%eax
     955:	89 c7                	mov    %eax,%edi
     957:	0f 89 a5 03 00 00    	jns    d02 <ext3_try_to_allocate_with_rsv+0x416>
     95d:	e9 c1 03 00 00       	jmp    d23 <ext3_try_to_allocate_with_rsv+0x437>
     962:	8b 96 84 01 00 00    	mov    0x184(%esi),%edx
     968:	31 ff                	xor    %edi,%edi
     96a:	89 f5                	mov    %esi,%ebp
     96c:	8b 4c 24 0c          	mov    0xc(%esp),%ecx
     970:	8b 42 10             	mov    0x10(%edx),%eax
     973:	0f af c8             	imul   %eax,%ecx
     976:	89 4c 24 10          	mov    %ecx,0x10(%esp)
     97a:	8b 52 34             	mov    0x34(%edx),%edx
     97d:	8b 4a 14             	mov    0x14(%edx),%ecx
     980:	01 4c 24 10          	add    %ecx,0x10(%esp)
     984:	8b 54 24 10          	mov    0x10(%esp),%edx
     988:	8d 4b 14             	lea    0x14(%ebx),%ecx
     98b:	89 4c 24 2c          	mov    %ecx,0x2c(%esp)
     98f:	8d 44 10 ff          	lea    -0x1(%eax,%edx,1),%eax
     993:	89 44 24 28          	mov    %eax,0x28(%esp)
     997:	8b 73 18             	mov    0x18(%ebx),%esi
     99a:	85 f6                	test   %esi,%esi
     99c:	74 44                	je     9e2 <ext3_try_to_allocate_with_rsv+0xf6>
     99e:	85 ff                	test   %edi,%edi
     9a0:	78 40                	js     9e2 <ext3_try_to_allocate_with_rsv+0xf6>
     9a2:	8b bd 84 01 00 00    	mov    0x184(%ebp),%edi
     9a8:	8b 44 24 0c          	mov    0xc(%esp),%eax
     9ac:	8b 4f 10             	mov    0x10(%edi),%ecx
     9af:	8b 57 34             	mov    0x34(%edi),%edx
     9b2:	0f af c1             	imul   %ecx,%eax
     9b5:	03 42 14             	add    0x14(%edx),%eax
     9b8:	8b 53 14             	mov    0x14(%ebx),%edx
     9bb:	8d 4c 08 ff          	lea    -0x1(%eax,%ecx,1),%ecx
     9bf:	39 ca                	cmp    %ecx,%edx
     9c1:	77 1f                	ja     9e2 <ext3_try_to_allocate_with_rsv+0xf6>
     9c3:	39 c6                	cmp    %eax,%esi
     9c5:	72 1b                	jb     9e2 <ext3_try_to_allocate_with_rsv+0xf6>
     9c7:	83 7c 24 50 00       	cmpl   $0x0,0x50(%esp)
     9cc:	0f 88 be 02 00 00    	js     c90 <ext3_try_to_allocate_with_rsv+0x3a4>
     9d2:	03 44 24 50          	add    0x50(%esp),%eax
     9d6:	39 d0                	cmp    %edx,%eax
     9d8:	72 08                	jb     9e2 <ext3_try_to_allocate_with_rsv+0xf6>
     9da:	39 f0                	cmp    %esi,%eax
     9dc:	0f 86 49 02 00 00    	jbe    c2b <ext3_try_to_allocate_with_rsv+0x33f>
     9e2:	8b 54 24 58          	mov    0x58(%esp),%edx
     9e6:	8b 02                	mov    (%edx),%eax
     9e8:	39 43 0c             	cmp    %eax,0xc(%ebx)
     9eb:	73 03                	jae    9f0 <ext3_try_to_allocate_with_rsv+0x104>
     9ed:	89 43 0c             	mov    %eax,0xc(%ebx)
     9f0:	8b 8d 84 01 00 00    	mov    0x184(%ebp),%ecx
     9f6:	8b 54 24 0c          	mov    0xc(%esp),%edx
     9fa:	8b 74 24 50          	mov    0x50(%esp),%esi
     9fe:	89 4c 24 08          	mov    %ecx,0x8(%esp)
     a02:	8b 41 10             	mov    0x10(%ecx),%eax
     a05:	0f af d0             	imul   %eax,%edx
     a08:	89 54 24 04          	mov    %edx,0x4(%esp)
     a0c:	8b 51 34             	mov    0x34(%ecx),%edx
     a0f:	8b 4a 14             	mov    0x14(%edx),%ecx
     a12:	01 4c 24 04          	add    %ecx,0x4(%esp)
     a16:	8b 54 24 04          	mov    0x4(%esp),%edx
     a1a:	8d 44 02 ff          	lea    -0x1(%edx,%eax,1),%eax
     a1e:	01 d6                	add    %edx,%esi
     a20:	89 44 24 18          	mov    %eax,0x18(%esp)
     a24:	8b 43 18             	mov    0x18(%ebx),%eax
     a27:	83 7c 24 50 00       	cmpl   $0x0,0x50(%esp)
     a2c:	8b 4b 0c             	mov    0xc(%ebx),%ecx
     a2f:	0f 48 f2             	cmovs  %edx,%esi
     a32:	85 c0                	test   %eax,%eax
     a34:	74 34                	je     a6a <ext3_try_to_allocate_with_rsv+0x17e>
     a36:	8b 53 14             	mov    0x14(%ebx),%edx
     a39:	3b 54 24 18          	cmp    0x18(%esp),%edx
     a3d:	77 0e                	ja     a4d <ext3_try_to_allocate_with_rsv+0x161>
     a3f:	3b 44 24 18          	cmp    0x18(%esp),%eax
     a43:	76 08                	jbe    a4d <ext3_try_to_allocate_with_rsv+0x161>
     a45:	39 d6                	cmp    %edx,%esi
     a47:	0f 83 ba 01 00 00    	jae    c07 <ext3_try_to_allocate_with_rsv+0x31b>
     a4d:	40                   	inc    %eax
     a4e:	29 d0                	sub    %edx,%eax
     a50:	d1 e8                	shr    %eax
     a52:	39 43 10             	cmp    %eax,0x10(%ebx)
     a55:	76 13                	jbe    a6a <ext3_try_to_allocate_with_rsv+0x17e>
     a57:	01 c9                	add    %ecx,%ecx
     a59:	b8 03 04 00 00       	mov    $0x403,%eax
     a5e:	81 f9 03 04 00 00    	cmp    $0x403,%ecx
     a64:	0f 46 c1             	cmovbe %ecx,%eax
     a67:	89 43 0c             	mov    %eax,0xc(%ebx)
     a6a:	8b 4c 24 08          	mov    0x8(%esp),%ecx
     a6e:	31 ff                	xor    %edi,%edi
     a70:	81 c1 cc 00 00 00    	add    $0xcc,%ecx
     a76:	89 c8                	mov    %ecx,%eax
     a78:	89 4c 24 20          	mov    %ecx,0x20(%esp)
     a7c:	e8 fc ff ff ff       	call   a7d <ext3_try_to_allocate_with_rsv+0x191>
			a7d: R_386_PC32	_spin_lock
     a81:	8b 54 24 08          	mov    0x8(%esp),%edx
     a85:	8b 82 d0 00 00 00    	mov    0xd0(%edx),%eax
     a8b:	85 c0                	test   %eax,%eax
     a8d:	74 27                	je     ab6 <ext3_try_to_allocate_with_rsv+0x1ca>
     a8f:	8b 50 14             	mov    0x14(%eax),%edx
     a92:	89 c7                	mov    %eax,%edi
     a94:	39 d6                	cmp    %edx,%esi
     a96:	73 05                	jae    a9d <ext3_try_to_allocate_with_rsv+0x1b1>
     a98:	8b 40 08             	mov    0x8(%eax),%eax
     a9b:	eb 08                	jmp    aa5 <ext3_try_to_allocate_with_rsv+0x1b9>
     a9d:	3b 70 18             	cmp    0x18(%eax),%esi
     aa0:	76 14                	jbe    ab6 <ext3_try_to_allocate_with_rsv+0x1ca>
     aa2:	8b 40 04             	mov    0x4(%eax),%eax
     aa5:	85 c0                	test   %eax,%eax
     aa7:	75 e6                	jne    a8f <ext3_try_to_allocate_with_rsv+0x1a3>
     aa9:	39 f2                	cmp    %esi,%edx
     aab:	76 09                	jbe    ab6 <ext3_try_to_allocate_with_rsv+0x1ca>
     aad:	89 f8                	mov    %edi,%eax
     aaf:	e8 fc ff ff ff       	call   ab0 <ext3_try_to_allocate_with_rsv+0x1c4>
			ab0: R_386_PC32	rb_prev
     ab4:	89 c7                	mov    %eax,%edi
     ab6:	8b 4c 24 08          	mov    0x8(%esp),%ecx
     aba:	8b 44 24 18          	mov    0x18(%esp),%eax
     abe:	2b 44 24 04          	sub    0x4(%esp),%eax
     ac2:	81 c1 cc 00 00 00    	add    $0xcc,%ecx
     ac8:	40                   	inc    %eax
     ac9:	89 4c 24 1c          	mov    %ecx,0x1c(%esp)
     acd:	89 44 24 30          	mov    %eax,0x30(%esp)
     ad1:	8b 43 0c             	mov    0xc(%ebx),%eax
     ad4:	85 ff                	test   %edi,%edi
     ad6:	89 44 24 24          	mov    %eax,0x24(%esp)
     ada:	0f 84 89 00 00 00    	je     b69 <ext3_try_to_allocate_with_rsv+0x27d>
     ae0:	8b 47 18             	mov    0x18(%edi),%eax
     ae3:	39 c6                	cmp    %eax,%esi
     ae5:	8d 50 01             	lea    0x1(%eax),%edx
     ae8:	0f 46 f2             	cmovbe %edx,%esi
     aeb:	3b 74 24 18          	cmp    0x18(%esp),%esi
     aef:	77 78                	ja     b69 <ext3_try_to_allocate_with_rsv+0x27d>
     af1:	89 f8                	mov    %edi,%eax
     af3:	e8 fc ff ff ff       	call   af4 <ext3_try_to_allocate_with_rsv+0x208>
			af4: R_386_PC32	rb_next
     af8:	85 c0                	test   %eax,%eax
     afa:	74 10                	je     b0c <ext3_try_to_allocate_with_rsv+0x220>
     afc:	8b 4c 24 24          	mov    0x24(%esp),%ecx
     b00:	8d 14 0e             	lea    (%esi,%ecx,1),%edx
     b03:	3b 50 14             	cmp    0x14(%eax),%edx
     b06:	76 04                	jbe    b0c <ext3_try_to_allocate_with_rsv+0x220>
     b08:	89 c7                	mov    %eax,%edi
     b0a:	eb d4                	jmp    ae0 <ext3_try_to_allocate_with_rsv+0x1f4>
     b0c:	39 df                	cmp    %ebx,%edi
     b0e:	74 2e                	je     b3e <ext3_try_to_allocate_with_rsv+0x252>
     b10:	83 7b 18 00          	cmpl   $0x0,0x18(%ebx)
     b14:	74 28                	je     b3e <ext3_try_to_allocate_with_rsv+0x252>
     b16:	c7 43 14 00 00 00 00 	movl   $0x0,0x14(%ebx)
     b1d:	89 d8                	mov    %ebx,%eax
     b1f:	c7 43 18 00 00 00 00 	movl   $0x0,0x18(%ebx)
     b26:	c7 43 10 00 00 00 00 	movl   $0x0,0x10(%ebx)
     b2d:	8b 95 84 01 00 00    	mov    0x184(%ebp),%edx
     b33:	81 c2 d0 00 00 00    	add    $0xd0,%edx
     b39:	e8 fc ff ff ff       	call   b3a <ext3_try_to_allocate_with_rsv+0x24e>
			b3a: R_386_PC32	rb_erase
     b3e:	89 73 14             	mov    %esi,0x14(%ebx)
     b41:	8b 54 24 24          	mov    0x24(%esp),%edx
     b45:	39 df                	cmp    %ebx,%edi
     b47:	c7 43 10 00 00 00 00 	movl   $0x0,0x10(%ebx)
     b4e:	8d 44 16 ff          	lea    -0x1(%esi,%edx,1),%eax
     b52:	89 43 18             	mov    %eax,0x18(%ebx)
     b55:	0f 84 df 01 00 00    	je     d3a <ext3_try_to_allocate_with_rsv+0x44e>
     b5b:	89 da                	mov    %ebx,%edx
     b5d:	89 e8                	mov    %ebp,%eax
     b5f:	e8 fc ff ff ff       	call   b60 <ext3_try_to_allocate_with_rsv+0x274>
			b60: R_386_PC32	ext3_rsv_window_add
     b64:	e9 d1 01 00 00       	jmp    d3a <ext3_try_to_allocate_with_rsv+0x44e>
     b69:	83 7b 18 00          	cmpl   $0x0,0x18(%ebx)
     b6d:	74 28                	je     b97 <ext3_try_to_allocate_with_rsv+0x2ab>
     b6f:	c7 43 14 00 00 00 00 	movl   $0x0,0x14(%ebx)
     b76:	89 d8                	mov    %ebx,%eax
     b78:	c7 43 18 00 00 00 00 	movl   $0x0,0x18(%ebx)
     b7f:	c7 43 10 00 00 00 00 	movl   $0x0,0x10(%ebx)
     b86:	8b 95 84 01 00 00    	mov    0x184(%ebp),%edx
     b8c:	81 c2 d0 00 00 00    	add    $0xd0,%edx
     b92:	e8 fc ff ff ff       	call   b93 <ext3_try_to_allocate_with_rsv+0x2a7>
			b93: R_386_PC32	rb_erase
     b97:	8b 4c 24 08          	mov    0x8(%esp),%ecx
     b9b:	fe 81 cc 00 00 00    	incb   0xcc(%ecx)
     ba1:	eb 64                	jmp    c07 <ext3_try_to_allocate_with_rsv+0x31b>
     ba3:	8b 44 24 20          	mov    0x20(%esp),%eax
     ba7:	e8 fc ff ff ff       	call   ba8 <ext3_try_to_allocate_with_rsv+0x2bc>
			ba8: R_386_PC32	_spin_lock
     bac:	83 7b 18 00          	cmpl   $0x0,0x18(%ebx)
     bb0:	74 28                	je     bda <ext3_try_to_allocate_with_rsv+0x2ee>
     bb2:	c7 43 14 00 00 00 00 	movl   $0x0,0x14(%ebx)
     bb9:	89 d8                	mov    %ebx,%eax
     bbb:	c7 43 18 00 00 00 00 	movl   $0x0,0x18(%ebx)
     bc2:	c7 43 10 00 00 00 00 	movl   $0x0,0x10(%ebx)
     bc9:	8b 95 84 01 00 00    	mov    0x184(%ebp),%edx
     bcf:	81 c2 d0 00 00 00    	add    $0xd0,%edx
     bd5:	e8 fc ff ff ff       	call   bd6 <ext3_try_to_allocate_with_rsv+0x2ea>
			bd6: R_386_PC32	rb_erase
     bda:	8b 44 24 1c          	mov    0x1c(%esp),%eax
     bde:	fe 00                	incb   (%eax)
     be0:	eb 25                	jmp    c07 <ext3_try_to_allocate_with_rsv+0x31b>
     be2:	8b 54 24 04          	mov    0x4(%esp),%edx
     be6:	8d 34 10             	lea    (%eax,%edx,1),%esi
     be9:	3b 73 14             	cmp    0x14(%ebx),%esi
     bec:	72 09                	jb     bf7 <ext3_try_to_allocate_with_rsv+0x30b>
     bee:	3b 73 18             	cmp    0x18(%ebx),%esi
     bf1:	0f 86 6a 01 00 00    	jbe    d61 <ext3_try_to_allocate_with_rsv+0x475>
     bf7:	8b 44 24 20          	mov    0x20(%esp),%eax
     bfb:	89 df                	mov    %ebx,%edi
     bfd:	e8 fc ff ff ff       	call   bfe <ext3_try_to_allocate_with_rsv+0x312>
			bfe: R_386_PC32	_spin_lock
     c02:	e9 ca fe ff ff       	jmp    ad1 <ext3_try_to_allocate_with_rsv+0x1e5>
     c07:	83 cf ff             	or     $0xffffffff,%edi
     c0a:	e9 14 01 00 00       	jmp    d23 <ext3_try_to_allocate_with_rsv+0x437>
     c0f:	8b 4b 18             	mov    0x18(%ebx),%ecx
     c12:	39 c1                	cmp    %eax,%ecx
     c14:	72 72                	jb     c88 <ext3_try_to_allocate_with_rsv+0x39c>
     c16:	83 7c 24 50 00       	cmpl   $0x0,0x50(%esp)
     c1b:	78 73                	js     c90 <ext3_try_to_allocate_with_rsv+0x3a4>
     c1d:	03 44 24 50          	add    0x50(%esp),%eax
     c21:	39 d0                	cmp    %edx,%eax
     c23:	72 63                	jb     c88 <ext3_try_to_allocate_with_rsv+0x39c>
     c25:	39 c8                	cmp    %ecx,%eax
     c27:	77 5f                	ja     c88 <ext3_try_to_allocate_with_rsv+0x39c>
     c29:	eb 65                	jmp    c90 <ext3_try_to_allocate_with_rsv+0x3a4>
     c2b:	8b 4c 24 58          	mov    0x58(%esp),%ecx
     c2f:	46                   	inc    %esi
     c30:	2b 74 24 10          	sub    0x10(%esp),%esi
     c34:	2b 74 24 50          	sub    0x50(%esp),%esi
     c38:	8b 11                	mov    (%ecx),%edx
     c3a:	39 d6                	cmp    %edx,%esi
     c3c:	73 52                	jae    c90 <ext3_try_to_allocate_with_rsv+0x3a4>
     c3e:	8d 87 cc 00 00 00    	lea    0xcc(%edi),%eax
     c44:	89 14 24             	mov    %edx,(%esp)
     c47:	e8 fc ff ff ff       	call   c48 <ext3_try_to_allocate_with_rsv+0x35c>
			c48: R_386_PC32	_spin_trylock
     c4c:	8b 14 24             	mov    (%esp),%edx
     c4f:	85 c0                	test   %eax,%eax
     c51:	74 3d                	je     c90 <ext3_try_to_allocate_with_rsv+0x3a4>
     c53:	29 f2                	sub    %esi,%edx
     c55:	89 d8                	mov    %ebx,%eax
     c57:	89 d6                	mov    %edx,%esi
     c59:	e8 fc ff ff ff       	call   c5a <ext3_try_to_allocate_with_rsv+0x36e>
			c5a: R_386_PC32	rb_next
     c5e:	85 c0                	test   %eax,%eax
     c60:	75 05                	jne    c67 <ext3_try_to_allocate_with_rsv+0x37b>
     c62:	01 73 18             	add    %esi,0x18(%ebx)
     c65:	eb 19                	jmp    c80 <ext3_try_to_allocate_with_rsv+0x394>
     c67:	8b 40 14             	mov    0x14(%eax),%eax
     c6a:	8b 53 18             	mov    0x18(%ebx),%edx
     c6d:	48                   	dec    %eax
     c6e:	89 c1                	mov    %eax,%ecx
     c70:	29 d1                	sub    %edx,%ecx
     c72:	39 f1                	cmp    %esi,%ecx
     c74:	72 07                	jb     c7d <ext3_try_to_allocate_with_rsv+0x391>
     c76:	01 d6                	add    %edx,%esi
     c78:	89 73 18             	mov    %esi,0x18(%ebx)
     c7b:	eb 03                	jmp    c80 <ext3_try_to_allocate_with_rsv+0x394>
     c7d:	89 43 18             	mov    %eax,0x18(%ebx)
     c80:	fe 87 cc 00 00 00    	incb   0xcc(%edi)
     c86:	eb 08                	jmp    c90 <ext3_try_to_allocate_with_rsv+0x3a4>
     c88:	c7 44 24 50 ff ff ff 	movl   $0xffffffff,0x50(%esp)
     c8f:	ff 
     c90:	8b 44 24 28          	mov    0x28(%esp),%eax
     c94:	39 43 14             	cmp    %eax,0x14(%ebx)
     c97:	77 09                	ja     ca2 <ext3_try_to_allocate_with_rsv+0x3b6>
     c99:	8b 54 24 10          	mov    0x10(%esp),%edx
     c9d:	39 53 18             	cmp    %edx,0x18(%ebx)
     ca0:	73 19                	jae    cbb <ext3_try_to_allocate_with_rsv+0x3cf>
     ca2:	8b 85 84 01 00 00    	mov    0x184(%ebp),%eax
     ca8:	ba 3c 00 00 00       	mov    $0x3c,%edx
			ca9: R_386_32	.rodata
     cad:	05 d0 00 00 00       	add    $0xd0,%eax
     cb2:	e8 41 f7 ff ff       	call   3f8 <T.581>
     cb7:	0f 0b                	ud2a   
     cb9:	eb fe                	jmp    cb9 <ext3_try_to_allocate_with_rsv+0x3cd>
     cbb:	ff 74 24 2c          	pushl  0x2c(%esp)
     cbf:	89 e8                	mov    %ebp,%eax
     cc1:	8d 4c 24 38          	lea    0x38(%esp),%ecx
     cc5:	51                   	push   %ecx
     cc6:	ff 74 24 58          	pushl  0x58(%esp)
     cca:	ff 74 24 58          	pushl  0x58(%esp)
     cce:	8b 4c 24 1c          	mov    0x1c(%esp),%ecx
     cd2:	8b 54 24 24          	mov    0x24(%esp),%edx
     cd6:	e8 e3 f9 ff ff       	call   6be <ext3_try_to_allocate>
     cdb:	83 c4 10             	add    $0x10,%esp
     cde:	85 c0                	test   %eax,%eax
     ce0:	89 c7                	mov    %eax,%edi
     ce2:	78 0f                	js     cf3 <ext3_try_to_allocate_with_rsv+0x407>
     ce4:	8b 44 24 34          	mov    0x34(%esp),%eax
     ce8:	01 43 10             	add    %eax,0x10(%ebx)
     ceb:	8b 54 24 58          	mov    0x58(%esp),%edx
     cef:	89 02                	mov    %eax,(%edx)
     cf1:	eb 0f                	jmp    d02 <ext3_try_to_allocate_with_rsv+0x416>
     cf3:	8b 4c 24 58          	mov    0x58(%esp),%ecx
     cf7:	8b 01                	mov    (%ecx),%eax
     cf9:	89 44 24 34          	mov    %eax,0x34(%esp)
     cfd:	e9 95 fc ff ff       	jmp    997 <ext3_try_to_allocate_with_rsv+0xab>
     d02:	8b 4c 24 4c          	mov    0x4c(%esp),%ecx
     d06:	b8 3c 00 00 00       	mov    $0x3c,%eax
			d07: R_386_32	.rodata
     d0b:	8b 54 24 14          	mov    0x14(%esp),%edx
     d0f:	e8 fc ff ff ff       	call   d10 <ext3_try_to_allocate_with_rsv+0x424>
			d10: R_386_PC32	__ext3_journal_dirty_metadata
     d14:	85 c0                	test   %eax,%eax
     d16:	74 18                	je     d30 <ext3_try_to_allocate_with_rsv+0x444>
     d18:	8b 54 24 5c          	mov    0x5c(%esp),%edx
     d1c:	83 cf ff             	or     $0xffffffff,%edi
     d1f:	89 02                	mov    %eax,(%edx)
     d21:	eb 0d                	jmp    d30 <ext3_try_to_allocate_with_rsv+0x444>
     d23:	8b 54 24 4c          	mov    0x4c(%esp),%edx
     d27:	8b 44 24 14          	mov    0x14(%esp),%eax
     d2b:	e8 fc ff ff ff       	call   d2c <ext3_try_to_allocate_with_rsv+0x440>
			d2c: R_386_PC32	journal_release_buffer
     d30:	83 c4 38             	add    $0x38,%esp
     d33:	89 f8                	mov    %edi,%eax
     d35:	5b                   	pop    %ebx
     d36:	5e                   	pop    %esi
     d37:	5f                   	pop    %edi
     d38:	5d                   	pop    %ebp
     d39:	c3                   	ret    
     d3a:	8b 4c 24 1c          	mov    0x1c(%esp),%ecx
     d3e:	fe 01                	incb   (%ecx)
     d40:	8b 43 14             	mov    0x14(%ebx),%eax
     d43:	8b 4c 24 30          	mov    0x30(%esp),%ecx
     d47:	8b 54 24 4c          	mov    0x4c(%esp),%edx
     d4b:	2b 44 24 04          	sub    0x4(%esp),%eax
     d4f:	e8 8c f8 ff ff       	call   5e0 <bitmap_search_next_usable_block>
     d54:	85 c0                	test   %eax,%eax
     d56:	0f 89 86 fe ff ff    	jns    be2 <ext3_try_to_allocate_with_rsv+0x2f6>
     d5c:	e9 42 fe ff ff       	jmp    ba3 <ext3_try_to_allocate_with_rsv+0x2b7>
     d61:	8b 95 84 01 00 00    	mov    0x184(%ebp),%edx
     d67:	8b 44 24 0c          	mov    0xc(%esp),%eax
     d6b:	8b 4a 10             	mov    0x10(%edx),%ecx
     d6e:	8b 52 34             	mov    0x34(%edx),%edx
     d71:	0f af c1             	imul   %ecx,%eax
     d74:	03 42 14             	add    0x14(%edx),%eax
     d77:	8b 53 14             	mov    0x14(%ebx),%edx
     d7a:	8d 4c 08 ff          	lea    -0x1(%eax,%ecx,1),%ecx
     d7e:	39 ca                	cmp    %ecx,%edx
     d80:	0f 87 02 ff ff ff    	ja     c88 <ext3_try_to_allocate_with_rsv+0x39c>
     d86:	e9 84 fe ff ff       	jmp    c0f <ext3_try_to_allocate_with_rsv+0x323>

00000d8b <ext3_new_blocks>:
     d8b:	55                   	push   %ebp
     d8c:	57                   	push   %edi
     d8d:	56                   	push   %esi
     d8e:	53                   	push   %ebx
     d8f:	83 ec 3c             	sub    $0x3c,%esp
     d92:	89 54 24 08          	mov    %edx,0x8(%esp)
     d96:	8b 54 24 50          	mov    0x50(%esp),%edx
     d9a:	89 4c 24 1c          	mov    %ecx,0x1c(%esp)
     d9e:	8b 4c 24 54          	mov    0x54(%esp),%ecx
     da2:	89 44 24 20          	mov    %eax,0x20(%esp)
     da6:	c7 44 24 34 00 00 00 	movl   $0x0,0x34(%esp)
     dad:	00 
     dae:	8b 02                	mov    (%edx),%eax
     db0:	89 44 24 30          	mov    %eax,0x30(%esp)
     db4:	c7 01 e4 ff ff ff    	movl   $0xffffffe4,(%ecx)
     dba:	8b 5c 24 08          	mov    0x8(%esp),%ebx
     dbe:	8b b3 a4 00 00 00    	mov    0xa4(%ebx),%esi
     dc4:	85 f6                	test   %esi,%esi
     dc6:	75 12                	jne    dda <ext3_new_blocks+0x4f>
     dc8:	68 eb 01 00 00       	push   $0x1eb
			dc9: R_386_32	.rodata.str1.1
     dcd:	31 db                	xor    %ebx,%ebx
     dcf:	e8 fc ff ff ff       	call   dd0 <ext3_new_blocks+0x45>
			dd0: R_386_PC32	printk
     dd4:	5e                   	pop    %esi
     dd5:	e9 2e 04 00 00       	jmp    1208 <ext3_new_blocks+0x47d>
     dda:	8b 5c 24 08          	mov    0x8(%esp),%ebx
     dde:	31 d2                	xor    %edx,%edx
     de0:	8b 44 24 30          	mov    0x30(%esp),%eax
     de4:	8b 4b 6c             	mov    0x6c(%ebx),%ecx
     de7:	31 db                	xor    %ebx,%ebx
     de9:	0f a5 c2             	shld   %cl,%eax,%edx
     dec:	d3 e0                	shl    %cl,%eax
     dee:	f6 c1 20             	test   $0x20,%cl
     df1:	8b 8e a8 00 00 00    	mov    0xa8(%esi),%ecx
     df7:	0f 45 d0             	cmovne %eax,%edx
     dfa:	0f 45 c3             	cmovne %ebx,%eax
     dfd:	f6 c1 01             	test   $0x1,%cl
     e00:	0f 84 0c 04 00 00    	je     1212 <ext3_new_blocks+0x487>
     e06:	f6 c1 04             	test   $0x4,%cl
     e09:	74 0e                	je     e19 <ext3_new_blocks+0x8e>
     e0b:	e9 02 04 00 00       	jmp    1212 <ext3_new_blocks+0x487>
     e10:	80 e1 20             	and    $0x20,%cl
     e13:	0f 85 02 04 00 00    	jne    121b <ext3_new_blocks+0x490>
     e19:	8b 5e 24             	mov    0x24(%esi),%ebx
     e1c:	89 d1                	mov    %edx,%ecx
     e1e:	89 c2                	mov    %eax,%edx
     e20:	6a 00                	push   $0x0
     e22:	8b 44 24 0c          	mov    0xc(%esp),%eax
     e26:	ff 53 08             	call   *0x8(%ebx)
     e29:	5d                   	pop    %ebp
     e2a:	48                   	dec    %eax
     e2b:	0f 85 f7 03 00 00    	jne    1228 <ext3_new_blocks+0x49d>
     e31:	8b 44 24 54          	mov    0x54(%esp),%eax
     e35:	31 db                	xor    %ebx,%ebx
     e37:	c7 00 86 ff ff ff    	movl   $0xffffff86,(%eax)
     e3d:	e9 c6 03 00 00       	jmp    1208 <ext3_new_blocks+0x47d>
     e42:	8b 50 0c             	mov    0xc(%eax),%edx
     e45:	31 ff                	xor    %edi,%edi
     e47:	66 85 d2             	test   %dx,%dx
     e4a:	66 89 54 24 12       	mov    %dx,0x12(%esp)
     e4f:	0f 45 f8             	cmovne %eax,%edi
     e52:	8b 44 24 14          	mov    0x14(%esp),%eax
     e56:	e8 1b f3 ff ff       	call   176 <ext3_has_free_blocks>
     e5b:	85 c0                	test   %eax,%eax
     e5d:	75 13                	jne    e72 <ext3_new_blocks+0xe7>
     e5f:	8b 4c 24 54          	mov    0x54(%esp),%ecx
     e63:	31 ff                	xor    %edi,%edi
     e65:	31 ed                	xor    %ebp,%ebp
     e67:	c7 01 e4 ff ff ff    	movl   $0xffffffe4,(%ecx)
     e6d:	e9 5a 03 00 00       	jmp    11cc <ext3_new_blocks+0x441>
     e72:	8b 5c 24 18          	mov    0x18(%esp),%ebx
     e76:	8b 43 14             	mov    0x14(%ebx),%eax
     e79:	39 44 24 1c          	cmp    %eax,0x1c(%esp)
     e7d:	72 09                	jb     e88 <ext3_new_blocks+0xfd>
     e7f:	8b 54 24 1c          	mov    0x1c(%esp),%edx
     e83:	3b 53 04             	cmp    0x4(%ebx),%edx
     e86:	72 04                	jb     e8c <ext3_new_blocks+0x101>
     e88:	89 44 24 1c          	mov    %eax,0x1c(%esp)
     e8c:	8b 4c 24 1c          	mov    0x1c(%esp),%ecx
     e90:	31 d2                	xor    %edx,%edx
     e92:	31 ed                	xor    %ebp,%ebp
     e94:	29 c1                	sub    %eax,%ecx
     e96:	89 c8                	mov    %ecx,%eax
     e98:	8b 8e 84 01 00 00    	mov    0x184(%esi),%ecx
     e9e:	f7 71 10             	divl   0x10(%ecx)
     ea1:	89 44 24 28          	mov    %eax,0x28(%esp)
     ea5:	89 44 24 04          	mov    %eax,0x4(%esp)
     ea9:	eb 11                	jmp    ebc <ext3_new_blocks+0x131>
     eab:	8b 4c 24 28          	mov    0x28(%esp),%ecx
     eaf:	31 ff                	xor    %edi,%edi
     eb1:	66 c7 44 24 12 00 00 	movw   $0x0,0x12(%esp)
     eb8:	89 4c 24 04          	mov    %ecx,0x4(%esp)
     ebc:	8b 54 24 04          	mov    0x4(%esp),%edx
     ec0:	8d 4c 24 38          	lea    0x38(%esp),%ecx
     ec4:	89 f0                	mov    %esi,%eax
     ec6:	e8 fc ff ff ff       	call   ec7 <ext3_new_blocks+0x13c>
			ec7: R_386_PC32	ext3_get_group_desc
     ecb:	85 c0                	test   %eax,%eax
     ecd:	89 04 24             	mov    %eax,(%esp)
     ed0:	0f 84 ea 02 00 00    	je     11c0 <ext3_new_blocks+0x435>
     ed6:	85 ff                	test   %edi,%edi
     ed8:	0f b7 40 0c          	movzwl 0xc(%eax),%eax
     edc:	74 19                	je     ef7 <ext3_new_blocks+0x16c>
     ede:	0f b7 54 24 12       	movzwl 0x12(%esp),%edx
     ee3:	39 d0                	cmp    %edx,%eax
     ee5:	7d 10                	jge    ef7 <ext3_new_blocks+0x16c>
     ee7:	85 c0                	test   %eax,%eax
     ee9:	7e 0c                	jle    ef7 <ext3_new_blocks+0x16c>
     eeb:	83 7f 18 00          	cmpl   $0x0,0x18(%edi)
     eef:	ba 00 00 00 00       	mov    $0x0,%edx
     ef4:	0f 44 fa             	cmove  %edx,%edi
     ef7:	85 c0                	test   %eax,%eax
     ef9:	74 69                	je     f64 <ext3_new_blocks+0x1d9>
     efb:	8b 44 24 18          	mov    0x18(%esp),%eax
     eff:	8b 54 24 04          	mov    0x4(%esp),%edx
     f03:	8b 58 14             	mov    0x14(%eax),%ebx
     f06:	8b 86 84 01 00 00    	mov    0x184(%esi),%eax
     f0c:	8b 40 10             	mov    0x10(%eax),%eax
     f0f:	89 44 24 0c          	mov    %eax,0xc(%esp)
     f13:	89 f0                	mov    %esi,%eax
     f15:	e8 8d f3 ff ff       	call   2a7 <read_block_bitmap>
     f1a:	85 c0                	test   %eax,%eax
     f1c:	89 c5                	mov    %eax,%ebp
     f1e:	0f 84 9c 02 00 00    	je     11c0 <ext3_new_blocks+0x435>
     f24:	8d 54 24 34          	lea    0x34(%esp),%edx
     f28:	52                   	push   %edx
     f29:	31 d2                	xor    %edx,%edx
     f2b:	8d 4c 24 34          	lea    0x34(%esp),%ecx
     f2f:	51                   	push   %ecx
     f30:	57                   	push   %edi
     f31:	8b 44 24 28          	mov    0x28(%esp),%eax
     f35:	29 d8                	sub    %ebx,%eax
     f37:	f7 74 24 18          	divl   0x18(%esp)
     f3b:	89 f0                	mov    %esi,%eax
     f3d:	52                   	push   %edx
     f3e:	55                   	push   %ebp
     f3f:	8b 4c 24 18          	mov    0x18(%esp),%ecx
     f43:	8b 54 24 34          	mov    0x34(%esp),%edx
     f47:	e8 a0 f9 ff ff       	call   8ec <ext3_try_to_allocate_with_rsv>
     f4c:	83 c4 14             	add    $0x14,%esp
     f4f:	89 c3                	mov    %eax,%ebx
     f51:	83 7c 24 34 00       	cmpl   $0x0,0x34(%esp)
     f56:	0f 85 6e 02 00 00    	jne    11ca <ext3_new_blocks+0x43f>
     f5c:	85 c0                	test   %eax,%eax
     f5e:	0f 89 dc 00 00 00    	jns    1040 <ext3_new_blocks+0x2b5>
     f64:	8b 86 84 01 00 00    	mov    0x184(%esi),%eax
     f6a:	8b 40 24             	mov    0x24(%eax),%eax
     f6d:	89 44 24 24          	mov    %eax,0x24(%esp)
     f71:	66 8b 44 24 12       	mov    0x12(%esp),%ax
     f76:	c7 44 24 0c 00 00 00 	movl   $0x0,0xc(%esp)
     f7d:	00 
     f7e:	8b 5c 24 04          	mov    0x4(%esp),%ebx
     f82:	66 d1 e8             	shr    %ax
     f85:	0f b7 c0             	movzwl %ax,%eax
     f88:	89 44 24 2c          	mov    %eax,0x2c(%esp)
     f8c:	e9 84 00 00 00       	jmp    1015 <ext3_new_blocks+0x28a>
     f91:	43                   	inc    %ebx
     f92:	b8 00 00 00 00       	mov    $0x0,%eax
     f97:	3b 5c 24 24          	cmp    0x24(%esp),%ebx
     f9b:	8d 4c 24 38          	lea    0x38(%esp),%ecx
     f9f:	0f 43 d8             	cmovae %eax,%ebx
     fa2:	89 f0                	mov    %esi,%eax
     fa4:	89 da                	mov    %ebx,%edx
     fa6:	e8 fc ff ff ff       	call   fa7 <ext3_new_blocks+0x21c>
			fa7: R_386_PC32	ext3_get_group_desc
     fab:	85 c0                	test   %eax,%eax
     fad:	89 04 24             	mov    %eax,(%esp)
     fb0:	0f 84 0a 02 00 00    	je     11c0 <ext3_new_blocks+0x435>
     fb6:	85 ff                	test   %edi,%edi
     fb8:	8b 40 0c             	mov    0xc(%eax),%eax
     fbb:	74 09                	je     fc6 <ext3_new_blocks+0x23b>
     fbd:	0f b7 c0             	movzwl %ax,%eax
     fc0:	3b 44 24 2c          	cmp    0x2c(%esp),%eax
     fc4:	7e 4b                	jle    1011 <ext3_new_blocks+0x286>
     fc6:	85 ed                	test   %ebp,%ebp
     fc8:	74 07                	je     fd1 <ext3_new_blocks+0x246>
     fca:	89 e8                	mov    %ebp,%eax
     fcc:	e8 fc ff ff ff       	call   fcd <ext3_new_blocks+0x242>
			fcd: R_386_PC32	__brelse
     fd1:	89 da                	mov    %ebx,%edx
     fd3:	89 f0                	mov    %esi,%eax
     fd5:	e8 cd f2 ff ff       	call   2a7 <read_block_bitmap>
     fda:	85 c0                	test   %eax,%eax
     fdc:	89 c5                	mov    %eax,%ebp
     fde:	0f 84 dc 01 00 00    	je     11c0 <ext3_new_blocks+0x435>
     fe4:	8d 4c 24 34          	lea    0x34(%esp),%ecx
     fe8:	51                   	push   %ecx
     fe9:	89 d9                	mov    %ebx,%ecx
     feb:	8d 44 24 34          	lea    0x34(%esp),%eax
     fef:	50                   	push   %eax
     ff0:	89 f0                	mov    %esi,%eax
     ff2:	57                   	push   %edi
     ff3:	6a ff                	push   $0xffffffff
     ff5:	55                   	push   %ebp
     ff6:	8b 54 24 34          	mov    0x34(%esp),%edx
     ffa:	e8 ed f8 ff ff       	call   8ec <ext3_try_to_allocate_with_rsv>
     fff:	83 c4 14             	add    $0x14,%esp
    1002:	83 7c 24 34 00       	cmpl   $0x0,0x34(%esp)
    1007:	0f 85 bd 01 00 00    	jne    11ca <ext3_new_blocks+0x43f>
    100d:	85 c0                	test   %eax,%eax
    100f:	79 29                	jns    103a <ext3_new_blocks+0x2af>
    1011:	ff 44 24 0c          	incl   0xc(%esp)
    1015:	8b 54 24 24          	mov    0x24(%esp),%edx
    1019:	39 54 24 0c          	cmp    %edx,0xc(%esp)
    101d:	0f 82 6e ff ff ff    	jb     f91 <ext3_new_blocks+0x206>
    1023:	85 ff                	test   %edi,%edi
    1025:	0f 85 80 fe ff ff    	jne    eab <ext3_new_blocks+0x120>
    102b:	8b 4c 24 54          	mov    0x54(%esp),%ecx
    102f:	c7 01 e4 ff ff ff    	movl   $0xffffffe4,(%ecx)
    1035:	e9 92 01 00 00       	jmp    11cc <ext3_new_blocks+0x441>
    103a:	89 5c 24 04          	mov    %ebx,0x4(%esp)
    103e:	89 c3                	mov    %eax,%ebx
    1040:	8b 4c 24 38          	mov    0x38(%esp),%ecx
    1044:	b8 00 00 00 00       	mov    $0x0,%eax
			1045: R_386_32	.rodata
    1049:	8b 54 24 20          	mov    0x20(%esp),%edx
    104d:	e8 fc ff ff ff       	call   104e <ext3_new_blocks+0x2c3>
			104e: R_386_PC32	__ext3_journal_get_write_access
    1052:	85 c0                	test   %eax,%eax
    1054:	89 44 24 34          	mov    %eax,0x34(%esp)
    1058:	0f 85 6c 01 00 00    	jne    11ca <ext3_new_blocks+0x43f>
    105e:	8b 86 84 01 00 00    	mov    0x184(%esi),%eax
    1064:	8b 50 34             	mov    0x34(%eax),%edx
    1067:	03 5a 14             	add    0x14(%edx),%ebx
    106a:	8b 54 24 04          	mov    0x4(%esp),%edx
    106e:	0f af 50 10          	imul   0x10(%eax),%edx
    1072:	01 d3                	add    %edx,%ebx
    1074:	8b 14 24             	mov    (%esp),%edx
    1077:	8b 0a                	mov    (%edx),%ecx
    1079:	39 d9                	cmp    %ebx,%ecx
    107b:	72 0c                	jb     1089 <ext3_new_blocks+0x2fe>
    107d:	8b 54 24 30          	mov    0x30(%esp),%edx
    1081:	8d 54 13 ff          	lea    -0x1(%ebx,%edx,1),%edx
    1085:	39 d1                	cmp    %edx,%ecx
    1087:	76 3e                	jbe    10c7 <ext3_new_blocks+0x33c>
    1089:	8b 14 24             	mov    (%esp),%edx
    108c:	8b 4a 04             	mov    0x4(%edx),%ecx
    108f:	39 d9                	cmp    %ebx,%ecx
    1091:	72 0c                	jb     109f <ext3_new_blocks+0x314>
    1093:	8b 54 24 30          	mov    0x30(%esp),%edx
    1097:	8d 54 13 ff          	lea    -0x1(%ebx,%edx,1),%edx
    109b:	39 d1                	cmp    %edx,%ecx
    109d:	76 28                	jbe    10c7 <ext3_new_blocks+0x33c>
    109f:	8b 0c 24             	mov    (%esp),%ecx
    10a2:	8b 51 08             	mov    0x8(%ecx),%edx
    10a5:	39 d3                	cmp    %edx,%ebx
    10a7:	72 0a                	jb     10b3 <ext3_new_blocks+0x328>
    10a9:	8b 48 18             	mov    0x18(%eax),%ecx
    10ac:	01 d1                	add    %edx,%ecx
    10ae:	49                   	dec    %ecx
    10af:	39 cb                	cmp    %ecx,%ebx
    10b1:	76 14                	jbe    10c7 <ext3_new_blocks+0x33c>
    10b3:	8b 4c 24 30          	mov    0x30(%esp),%ecx
    10b7:	8d 4c 0b ff          	lea    -0x1(%ebx,%ecx,1),%ecx
    10bb:	39 d1                	cmp    %edx,%ecx
    10bd:	72 25                	jb     10e4 <ext3_new_blocks+0x359>
    10bf:	03 50 18             	add    0x18(%eax),%edx
    10c2:	4a                   	dec    %edx
    10c3:	39 d1                	cmp    %edx,%ecx
    10c5:	77 1d                	ja     10e4 <ext3_new_blocks+0x359>
    10c7:	ff 74 24 30          	pushl  0x30(%esp)
    10cb:	53                   	push   %ebx
    10cc:	68 0e 02 00 00       	push   $0x20e
			10cd: R_386_32	.rodata.str1.1
    10d1:	68 4c 02 00 00       	push   $0x24c
			10d2: R_386_32	.rodata.str1.1
    10d6:	56                   	push   %esi
    10d7:	e8 fc ff ff ff       	call   10d8 <ext3_new_blocks+0x34d>
			10d8: R_386_PC32	ext3_error
    10dc:	83 c4 14             	add    $0x14,%esp
    10df:	e9 d8 fd ff ff       	jmp    ebc <ext3_new_blocks+0x131>
    10e4:	8b 54 24 18          	mov    0x18(%esp),%edx
    10e8:	8b 42 04             	mov    0x4(%edx),%eax
    10eb:	39 c1                	cmp    %eax,%ecx
    10ed:	72 24                	jb     1113 <ext3_new_blocks+0x388>
    10ef:	52                   	push   %edx
    10f0:	bf 01 00 00 00       	mov    $0x1,%edi
    10f5:	ff 74 24 08          	pushl  0x8(%esp)
    10f9:	50                   	push   %eax
    10fa:	53                   	push   %ebx
    10fb:	68 5b 02 00 00       	push   $0x25b
			10fc: R_386_32	.rodata.str1.1
    1100:	68 4c 02 00 00       	push   $0x24c
			1101: R_386_32	.rodata.str1.1
    1105:	56                   	push   %esi
    1106:	e8 fc ff ff ff       	call   1107 <ext3_new_blocks+0x37c>
			1107: R_386_PC32	ext3_error
    110b:	83 c4 1c             	add    $0x1c,%esp
    110e:	e9 b9 00 00 00       	jmp    11cc <ext3_new_blocks+0x441>
    1113:	8b 7c 24 04          	mov    0x4(%esp),%edi
    1117:	8b 4c 24 14          	mov    0x14(%esp),%ecx
    111b:	83 e7 7f             	and    $0x7f,%edi
    111e:	c1 e7 05             	shl    $0x5,%edi
    1121:	89 f8                	mov    %edi,%eax
    1123:	03 81 c8 00 00 00    	add    0xc8(%ecx),%eax
    1129:	e8 fc ff ff ff       	call   112a <ext3_new_blocks+0x39f>
			112a: R_386_PC32	_spin_lock
    112e:	8b 14 24             	mov    (%esp),%edx
    1131:	8b 44 24 30          	mov    0x30(%esp),%eax
    1135:	66 29 42 0c          	sub    %ax,0xc(%edx)
    1139:	8b 4c 24 14          	mov    0x14(%esp),%ecx
    113d:	03 b9 c8 00 00 00    	add    0xc8(%ecx),%edi
    1143:	fe 07                	incb   (%edi)
    1145:	8b 54 24 30          	mov    0x30(%esp),%edx
    1149:	31 c9                	xor    %ecx,%ecx
    114b:	8b 44 24 14          	mov    0x14(%esp),%eax
    114f:	ff 35 00 00 00 00    	pushl  0x0
			1151: R_386_32	percpu_counter_batch
    1155:	f7 da                	neg    %edx
    1157:	83 d1 00             	adc    $0x0,%ecx
    115a:	83 e8 80             	sub    $0xffffff80,%eax
    115d:	f7 d9                	neg    %ecx
    115f:	e8 fc ff ff ff       	call   1160 <ext3_new_blocks+0x3d5>
			1160: R_386_PC32	__percpu_counter_add
    1164:	b8 00 00 00 00       	mov    $0x0,%eax
			1165: R_386_32	.rodata
    1169:	8b 4c 24 3c          	mov    0x3c(%esp),%ecx
    116d:	8b 54 24 24          	mov    0x24(%esp),%edx
    1171:	e8 fc ff ff ff       	call   1172 <ext3_new_blocks+0x3e7>
			1172: R_386_PC32	__ext3_journal_dirty_metadata
    1176:	5f                   	pop    %edi
    1177:	83 7c 24 34 00       	cmpl   $0x0,0x34(%esp)
    117c:	75 04                	jne    1182 <ext3_new_blocks+0x3f7>
    117e:	89 44 24 34          	mov    %eax,0x34(%esp)
    1182:	83 7c 24 34 00       	cmpl   $0x0,0x34(%esp)
    1187:	bf 01 00 00 00       	mov    $0x1,%edi
    118c:	75 3e                	jne    11cc <ext3_new_blocks+0x441>
    118e:	8b 44 24 54          	mov    0x54(%esp),%eax
    1192:	c7 00 00 00 00 00    	movl   $0x0,(%eax)
    1198:	89 e8                	mov    %ebp,%eax
    119a:	e8 fc ff ff ff       	call   119b <ext3_new_blocks+0x410>
			119b: R_386_PC32	__brelse
    119f:	8b 4c 24 50          	mov    0x50(%esp),%ecx
    11a3:	8b 44 24 08          	mov    0x8(%esp),%eax
    11a7:	8b 11                	mov    (%ecx),%edx
    11a9:	31 c9                	xor    %ecx,%ecx
    11ab:	2b 54 24 30          	sub    0x30(%esp),%edx
    11af:	e8 8f f0 ff ff       	call   243 <vfs_dq_free_block>
    11b4:	8b 44 24 30          	mov    0x30(%esp),%eax
    11b8:	8b 54 24 50          	mov    0x50(%esp),%edx
    11bc:	89 02                	mov    %eax,(%edx)
    11be:	eb 48                	jmp    1208 <ext3_new_blocks+0x47d>
    11c0:	8b 4c 24 54          	mov    0x54(%esp),%ecx
    11c4:	c7 01 fb ff ff ff    	movl   $0xfffffffb,(%ecx)
    11ca:	31 ff                	xor    %edi,%edi
    11cc:	8b 4c 24 34          	mov    0x34(%esp),%ecx
    11d0:	85 c9                	test   %ecx,%ecx
    11d2:	74 12                	je     11e6 <ext3_new_blocks+0x45b>
    11d4:	8b 5c 24 54          	mov    0x54(%esp),%ebx
    11d8:	ba 00 00 00 00       	mov    $0x0,%edx
			11d9: R_386_32	.rodata
    11dd:	89 f0                	mov    %esi,%eax
    11df:	89 0b                	mov    %ecx,(%ebx)
    11e1:	e8 fc ff ff ff       	call   11e2 <ext3_new_blocks+0x457>
			11e2: R_386_PC32	__ext3_std_error
    11e6:	85 ff                	test   %edi,%edi
    11e8:	75 11                	jne    11fb <ext3_new_blocks+0x470>
    11ea:	8b 44 24 50          	mov    0x50(%esp),%eax
    11ee:	31 c9                	xor    %ecx,%ecx
    11f0:	8b 10                	mov    (%eax),%edx
    11f2:	8b 44 24 08          	mov    0x8(%esp),%eax
    11f6:	e8 48 f0 ff ff       	call   243 <vfs_dq_free_block>
    11fb:	31 db                	xor    %ebx,%ebx
    11fd:	85 ed                	test   %ebp,%ebp
    11ff:	74 07                	je     1208 <ext3_new_blocks+0x47d>
    1201:	89 e8                	mov    %ebp,%eax
    1203:	e8 fc ff ff ff       	call   1204 <ext3_new_blocks+0x479>
			1204: R_386_PC32	__brelse
    1208:	83 c4 3c             	add    $0x3c,%esp
    120b:	89 d8                	mov    %ebx,%eax
    120d:	5b                   	pop    %ebx
    120e:	5e                   	pop    %esi
    120f:	5f                   	pop    %edi
    1210:	5d                   	pop    %ebp
    1211:	c3                   	ret    
    1212:	f6 c1 08             	test   $0x8,%cl
    1215:	0f 85 f5 fb ff ff    	jne    e10 <ext3_new_blocks+0x85>
    121b:	89 d1                	mov    %edx,%ecx
    121d:	89 c2                	mov    %eax,%edx
    121f:	8b 44 24 08          	mov    0x8(%esp),%eax
    1223:	e8 fc ff ff ff       	call   1224 <ext3_new_blocks+0x499>
			1224: R_386_PC32	inode_add_bytes
    1228:	8b 44 24 08          	mov    0x8(%esp),%eax
    122c:	ba 07 00 00 00       	mov    $0x7,%edx
    1231:	e8 fc ff ff ff       	call   1232 <ext3_new_blocks+0x4a7>
			1232: R_386_PC32	__mark_inode_dirty
    1236:	8b 96 84 01 00 00    	mov    0x184(%esi),%edx
    123c:	8b 5c 24 08          	mov    0x8(%esp),%ebx
    1240:	89 54 24 14          	mov    %edx,0x14(%esp)
    1244:	8b 4a 34             	mov    0x34(%edx),%ecx
    1247:	89 4c 24 18          	mov    %ecx,0x18(%esp)
    124b:	8b 43 b8             	mov    -0x48(%ebx),%eax
    124e:	85 c0                	test   %eax,%eax
    1250:	0f 85 ec fb ff ff    	jne    e42 <ext3_new_blocks+0xb7>
    1256:	66 c7 44 24 12 00 00 	movw   $0x0,0x12(%esp)
    125d:	31 ff                	xor    %edi,%edi
    125f:	e9 ee fb ff ff       	jmp    e52 <ext3_new_blocks+0xc7>

00001264 <ext3_new_block>:
    1264:	53                   	push   %ebx
    1265:	83 ec 04             	sub    $0x4,%esp
    1268:	c7 04 24 01 00 00 00 	movl   $0x1,(%esp)
    126f:	ff 74 24 0c          	pushl  0xc(%esp)
    1273:	8d 5c 24 04          	lea    0x4(%esp),%ebx
    1277:	53                   	push   %ebx
    1278:	e8 fc ff ff ff       	call   1279 <ext3_new_block+0x15>
			1279: R_386_PC32	ext3_new_blocks
    127d:	83 c4 0c             	add    $0xc,%esp
    1280:	5b                   	pop    %ebx
    1281:	c3                   	ret    

00001282 <ext3_free_blocks_sb>:
    1282:	55                   	push   %ebp
    1283:	57                   	push   %edi
    1284:	56                   	push   %esi
    1285:	89 ce                	mov    %ecx,%esi
    1287:	53                   	push   %ebx
    1288:	83 ec 3c             	sub    $0x3c,%esp
    128b:	89 44 24 1c          	mov    %eax,0x1c(%esp)
    128f:	8b 44 24 54          	mov    0x54(%esp),%eax
    1293:	89 54 24 08          	mov    %edx,0x8(%esp)
    1297:	8b 6c 24 50          	mov    0x50(%esp),%ebp
    129b:	c7 00 00 00 00 00    	movl   $0x0,(%eax)
    12a1:	8b 92 84 01 00 00    	mov    0x184(%edx),%edx
    12a7:	89 54 24 0c          	mov    %edx,0xc(%esp)
    12ab:	8b 4a 34             	mov    0x34(%edx),%ecx
    12ae:	89 4c 24 20          	mov    %ecx,0x20(%esp)
    12b2:	3b 71 14             	cmp    0x14(%ecx),%esi
    12b5:	72 0b                	jb     12c2 <ext3_free_blocks_sb+0x40>
    12b7:	89 e8                	mov    %ebp,%eax
    12b9:	01 f0                	add    %esi,%eax
    12bb:	72 05                	jb     12c2 <ext3_free_blocks_sb+0x40>
    12bd:	3b 41 04             	cmp    0x4(%ecx),%eax
    12c0:	76 1d                	jbe    12df <ext3_free_blocks_sb+0x5d>
    12c2:	55                   	push   %ebp
    12c3:	56                   	push   %esi
    12c4:	68 98 02 00 00       	push   $0x298
			12c5: R_386_32	.rodata.str1.1
    12c9:	68 d2 02 00 00       	push   $0x2d2
			12ca: R_386_32	.rodata.str1.1
    12ce:	ff 74 24 18          	pushl  0x18(%esp)
    12d2:	e8 fc ff ff ff       	call   12d3 <ext3_free_blocks_sb+0x51>
			12d3: R_386_PC32	ext3_error
    12d7:	83 c4 14             	add    $0x14,%esp
    12da:	e9 ba 02 00 00       	jmp    1599 <ext3_free_blocks_sb+0x317>
    12df:	8b 44 24 0c          	mov    0xc(%esp),%eax
    12e3:	31 ff                	xor    %edi,%edi
    12e5:	31 db                	xor    %ebx,%ebx
    12e7:	83 e8 80             	sub    $0xffffff80,%eax
    12ea:	89 44 24 34          	mov    %eax,0x34(%esp)
    12ee:	8b 54 24 20          	mov    0x20(%esp),%edx
    12f2:	89 f0                	mov    %esi,%eax
    12f4:	8b 4c 24 08          	mov    0x8(%esp),%ecx
    12f8:	2b 42 14             	sub    0x14(%edx),%eax
    12fb:	8b 91 84 01 00 00    	mov    0x184(%ecx),%edx
    1301:	8b 4a 10             	mov    0x10(%edx),%ecx
    1304:	31 d2                	xor    %edx,%edx
    1306:	c7 44 24 24 00 00 00 	movl   $0x0,0x24(%esp)
    130d:	00 
    130e:	f7 f1                	div    %ecx
    1310:	89 44 24 28          	mov    %eax,0x28(%esp)
    1314:	89 d0                	mov    %edx,%eax
    1316:	01 e8                	add    %ebp,%eax
    1318:	39 c8                	cmp    %ecx,%eax
    131a:	89 54 24 30          	mov    %edx,0x30(%esp)
    131e:	76 08                	jbe    1328 <ext3_free_blocks_sb+0xa6>
    1320:	29 c8                	sub    %ecx,%eax
    1322:	89 44 24 24          	mov    %eax,0x24(%esp)
    1326:	29 c5                	sub    %eax,%ebp
    1328:	85 db                	test   %ebx,%ebx
    132a:	74 07                	je     1333 <ext3_free_blocks_sb+0xb1>
    132c:	89 d8                	mov    %ebx,%eax
    132e:	e8 fc ff ff ff       	call   132f <ext3_free_blocks_sb+0xad>
			132f: R_386_PC32	__brelse
    1333:	8b 54 24 28          	mov    0x28(%esp),%edx
    1337:	8b 44 24 08          	mov    0x8(%esp),%eax
    133b:	e8 67 ef ff ff       	call   2a7 <read_block_bitmap>
    1340:	85 c0                	test   %eax,%eax
    1342:	89 c3                	mov    %eax,%ebx
    1344:	0f 84 4f 02 00 00    	je     1599 <ext3_free_blocks_sb+0x317>
    134a:	8b 54 24 28          	mov    0x28(%esp),%edx
    134e:	8d 4c 24 38          	lea    0x38(%esp),%ecx
    1352:	8b 44 24 08          	mov    0x8(%esp),%eax
    1356:	e8 fc ff ff ff       	call   1357 <ext3_free_blocks_sb+0xd5>
			1357: R_386_PC32	ext3_get_group_desc
    135b:	85 c0                	test   %eax,%eax
    135d:	89 44 24 10          	mov    %eax,0x10(%esp)
    1361:	0f 84 27 02 00 00    	je     158e <ext3_free_blocks_sb+0x30c>
    1367:	8b 00                	mov    (%eax),%eax
    1369:	39 f0                	cmp    %esi,%eax
    136b:	72 08                	jb     1375 <ext3_free_blocks_sb+0xf3>
    136d:	8d 54 2e ff          	lea    -0x1(%esi,%ebp,1),%edx
    1371:	39 d0                	cmp    %edx,%eax
    1373:	76 45                	jbe    13ba <ext3_free_blocks_sb+0x138>
    1375:	8b 54 24 10          	mov    0x10(%esp),%edx
    1379:	8b 42 04             	mov    0x4(%edx),%eax
    137c:	39 f0                	cmp    %esi,%eax
    137e:	72 08                	jb     1388 <ext3_free_blocks_sb+0x106>
    1380:	8d 54 2e ff          	lea    -0x1(%esi,%ebp,1),%edx
    1384:	39 d0                	cmp    %edx,%eax
    1386:	76 32                	jbe    13ba <ext3_free_blocks_sb+0x138>
    1388:	8b 4c 24 10          	mov    0x10(%esp),%ecx
    138c:	8b 41 08             	mov    0x8(%ecx),%eax
    138f:	39 c6                	cmp    %eax,%esi
    1391:	72 0e                	jb     13a1 <ext3_free_blocks_sb+0x11f>
    1393:	8b 4c 24 0c          	mov    0xc(%esp),%ecx
    1397:	89 c2                	mov    %eax,%edx
    1399:	03 51 18             	add    0x18(%ecx),%edx
    139c:	4a                   	dec    %edx
    139d:	39 d6                	cmp    %edx,%esi
    139f:	76 19                	jbe    13ba <ext3_free_blocks_sb+0x138>
    13a1:	8d 54 35 00          	lea    0x0(%ebp,%esi,1),%edx
    13a5:	89 54 24 2c          	mov    %edx,0x2c(%esp)
    13a9:	4a                   	dec    %edx
    13aa:	39 c2                	cmp    %eax,%edx
    13ac:	72 29                	jb     13d7 <ext3_free_blocks_sb+0x155>
    13ae:	8b 4c 24 0c          	mov    0xc(%esp),%ecx
    13b2:	03 41 18             	add    0x18(%ecx),%eax
    13b5:	48                   	dec    %eax
    13b6:	39 c2                	cmp    %eax,%edx
    13b8:	77 1d                	ja     13d7 <ext3_free_blocks_sb+0x155>
    13ba:	55                   	push   %ebp
    13bb:	56                   	push   %esi
    13bc:	68 e3 02 00 00       	push   $0x2e3
			13bd: R_386_32	.rodata.str1.1
    13c1:	68 d2 02 00 00       	push   $0x2d2
			13c2: R_386_32	.rodata.str1.1
    13c6:	ff 74 24 18          	pushl  0x18(%esp)
    13ca:	e8 fc ff ff ff       	call   13cb <ext3_free_blocks_sb+0x149>
			13cb: R_386_PC32	ext3_error
    13cf:	83 c4 14             	add    $0x14,%esp
    13d2:	e9 b7 01 00 00       	jmp    158e <ext3_free_blocks_sb+0x30c>
    13d7:	8b 54 24 1c          	mov    0x1c(%esp),%edx
    13db:	89 d9                	mov    %ebx,%ecx
    13dd:	b8 5c 00 00 00       	mov    $0x5c,%eax
			13de: R_386_32	.rodata
    13e2:	e8 fc ff ff ff       	call   13e3 <ext3_free_blocks_sb+0x161>
			13e3: R_386_PC32	__ext3_journal_get_undo_access
    13e7:	85 c0                	test   %eax,%eax
    13e9:	89 c7                	mov    %eax,%edi
    13eb:	0f 85 9d 01 00 00    	jne    158e <ext3_free_blocks_sb+0x30c>
    13f1:	8b 4c 24 38          	mov    0x38(%esp),%ecx
    13f5:	b8 5c 00 00 00       	mov    $0x5c,%eax
			13f6: R_386_32	.rodata
    13fa:	8b 54 24 1c          	mov    0x1c(%esp),%edx
    13fe:	e8 fc ff ff ff       	call   13ff <ext3_free_blocks_sb+0x17d>
			13ff: R_386_PC32	__ext3_journal_get_write_access
    1403:	85 c0                	test   %eax,%eax
    1405:	89 c7                	mov    %eax,%edi
    1407:	74 10                	je     1419 <ext3_free_blocks_sb+0x197>
    1409:	e9 80 01 00 00       	jmp    158e <ext3_free_blocks_sb+0x30c>
    140e:	f3 90                	pause  
    1410:	8b 03                	mov    (%ebx),%eax
    1412:	a9 00 00 40 00       	test   $0x400000,%eax
    1417:	75 f5                	jne    140e <ext3_free_blocks_sb+0x18c>
    1419:	f0 0f ba 2b 16       	lock btsl $0x16,(%ebx)
    141e:	19 c0                	sbb    %eax,%eax
    1420:	85 c0                	test   %eax,%eax
    1422:	75 ec                	jne    1410 <ext3_free_blocks_sb+0x18e>
    1424:	c7 44 24 14 00 00 00 	movl   $0x0,0x14(%esp)
    142b:	00 
    142c:	31 c9                	xor    %ecx,%ecx
    142e:	8d 7b 02             	lea    0x2(%ebx),%edi
    1431:	e9 aa 00 00 00       	jmp    14e0 <ext3_free_blocks_sb+0x25e>
    1436:	89 e0                	mov    %esp,%eax
    1438:	25 00 e0 ff ff       	and    $0xffffe000,%eax
    143d:	f6 40 08 08          	testb  $0x8,0x8(%eax)
    1441:	74 29                	je     146c <ext3_free_blocks_sb+0x1ea>
    1443:	f0 80 27 bf          	lock andb $0xbf,(%edi)
    1447:	89 4c 24 04          	mov    %ecx,0x4(%esp)
    144b:	e8 fc ff ff ff       	call   144c <ext3_free_blocks_sb+0x1ca>
			144c: R_386_PC32	_cond_resched
    1450:	8b 4c 24 04          	mov    0x4(%esp),%ecx
    1454:	eb 0b                	jmp    1461 <ext3_free_blocks_sb+0x1df>
    1456:	f3 90                	pause  
    1458:	8b 03                	mov    (%ebx),%eax
    145a:	a9 00 00 40 00       	test   $0x400000,%eax
    145f:	75 f5                	jne    1456 <ext3_free_blocks_sb+0x1d4>
    1461:	f0 0f ba 2b 16       	lock btsl $0x16,(%ebx)
    1466:	19 c0                	sbb    %eax,%eax
    1468:	85 c0                	test   %eax,%eax
    146a:	75 ec                	jne    1458 <ext3_free_blocks_sb+0x1d6>
    146c:	8b 43 24             	mov    0x24(%ebx),%eax
    146f:	8b 40 14             	mov    0x14(%eax),%eax
    1472:	85 c0                	test   %eax,%eax
    1474:	75 04                	jne    147a <ext3_free_blocks_sb+0x1f8>
    1476:	0f 0b                	ud2a   
    1478:	eb fe                	jmp    1478 <ext3_free_blocks_sb+0x1f6>
    147a:	8b 54 24 30          	mov    0x30(%esp),%edx
    147e:	01 ca                	add    %ecx,%edx
    1480:	89 54 24 18          	mov    %edx,0x18(%esp)
    1484:	f0 0f ab 10          	lock bts %edx,(%eax)
    1488:	19 d2                	sbb    %edx,%edx
    148a:	8b 54 24 18          	mov    0x18(%esp),%edx
    148e:	8b 43 18             	mov    0x18(%ebx),%eax
    1491:	f0 0f b3 10          	lock btr %edx,(%eax)
    1495:	19 c0                	sbb    %eax,%eax
    1497:	85 c0                	test   %eax,%eax
    1499:	75 40                	jne    14db <ext3_free_blocks_sb+0x259>
    149b:	f0 80 27 bf          	lock andb $0xbf,(%edi)
    149f:	8d 04 31             	lea    (%ecx,%esi,1),%eax
    14a2:	50                   	push   %eax
    14a3:	68 1d 03 00 00       	push   $0x31d
			14a4: R_386_32	.rodata.str1.1
    14a8:	68 5c 00 00 00       	push   $0x5c
			14a9: R_386_32	.rodata
    14ad:	ff 74 24 14          	pushl  0x14(%esp)
    14b1:	89 4c 24 14          	mov    %ecx,0x14(%esp)
    14b5:	e8 fc ff ff ff       	call   14b6 <ext3_free_blocks_sb+0x234>
			14b6: R_386_PC32	ext3_error
    14ba:	83 c4 10             	add    $0x10,%esp
    14bd:	8b 4c 24 04          	mov    0x4(%esp),%ecx
    14c1:	eb 0b                	jmp    14ce <ext3_free_blocks_sb+0x24c>
    14c3:	f3 90                	pause  
    14c5:	8b 03                	mov    (%ebx),%eax
    14c7:	a9 00 00 40 00       	test   $0x400000,%eax
    14cc:	75 f5                	jne    14c3 <ext3_free_blocks_sb+0x241>
    14ce:	f0 0f ba 2b 16       	lock btsl $0x16,(%ebx)
    14d3:	19 c0                	sbb    %eax,%eax
    14d5:	85 c0                	test   %eax,%eax
    14d7:	74 06                	je     14df <ext3_free_blocks_sb+0x25d>
    14d9:	eb ea                	jmp    14c5 <ext3_free_blocks_sb+0x243>
    14db:	ff 44 24 14          	incl   0x14(%esp)
    14df:	41                   	inc    %ecx
    14e0:	39 e9                	cmp    %ebp,%ecx
    14e2:	0f 82 4e ff ff ff    	jb     1436 <ext3_free_blocks_sb+0x1b4>
    14e8:	f0 80 63 02 bf       	lock andb $0xbf,0x2(%ebx)
    14ed:	8b 74 24 28          	mov    0x28(%esp),%esi
    14f1:	8b 4c 24 0c          	mov    0xc(%esp),%ecx
    14f5:	83 e6 7f             	and    $0x7f,%esi
    14f8:	c1 e6 05             	shl    $0x5,%esi
    14fb:	89 f0                	mov    %esi,%eax
    14fd:	03 81 c8 00 00 00    	add    0xc8(%ecx),%eax
    1503:	e8 fc ff ff ff       	call   1504 <ext3_free_blocks_sb+0x282>
			1504: R_386_PC32	_spin_lock
    1508:	8b 44 24 10          	mov    0x10(%esp),%eax
    150c:	8b 54 24 14          	mov    0x14(%esp),%edx
    1510:	66 01 50 0c          	add    %dx,0xc(%eax)
    1514:	8b 4c 24 0c          	mov    0xc(%esp),%ecx
    1518:	03 b1 c8 00 00 00    	add    0xc8(%ecx),%esi
    151e:	fe 06                	incb   (%esi)
    1520:	ff 35 00 00 00 00    	pushl  0x0
			1522: R_386_32	percpu_counter_batch
    1526:	89 ea                	mov    %ebp,%edx
    1528:	8b 44 24 38          	mov    0x38(%esp),%eax
    152c:	31 c9                	xor    %ecx,%ecx
    152e:	e8 fc ff ff ff       	call   152f <ext3_free_blocks_sb+0x2ad>
			152f: R_386_PC32	__percpu_counter_add
    1533:	89 d9                	mov    %ebx,%ecx
    1535:	b8 5c 00 00 00       	mov    $0x5c,%eax
			1536: R_386_32	.rodata
    153a:	8b 54 24 20          	mov    0x20(%esp),%edx
    153e:	e8 fc ff ff ff       	call   153f <ext3_free_blocks_sb+0x2bd>
			153f: R_386_PC32	__ext3_journal_dirty_metadata
    1543:	8b 54 24 20          	mov    0x20(%esp),%edx
    1547:	8b 4c 24 3c          	mov    0x3c(%esp),%ecx
    154b:	89 c7                	mov    %eax,%edi
    154d:	b8 5c 00 00 00       	mov    $0x5c,%eax
			154e: R_386_32	.rodata
    1552:	e8 fc ff ff ff       	call   1553 <ext3_free_blocks_sb+0x2d1>
			1553: R_386_PC32	__ext3_journal_dirty_metadata
    1557:	85 ff                	test   %edi,%edi
    1559:	5d                   	pop    %ebp
    155a:	0f 44 f8             	cmove  %eax,%edi
    155d:	8b 44 24 54          	mov    0x54(%esp),%eax
    1561:	8b 54 24 14          	mov    0x14(%esp),%edx
    1565:	01 10                	add    %edx,(%eax)
    1567:	85 ff                	test   %edi,%edi
    1569:	8b 6c 24 24          	mov    0x24(%esp),%ebp
    156d:	75 1f                	jne    158e <ext3_free_blocks_sb+0x30c>
    156f:	85 ed                	test   %ebp,%ebp
    1571:	74 1b                	je     158e <ext3_free_blocks_sb+0x30c>
    1573:	8b 74 24 2c          	mov    0x2c(%esp),%esi
    1577:	e9 72 fd ff ff       	jmp    12ee <ext3_free_blocks_sb+0x6c>
    157c:	8b 44 24 08          	mov    0x8(%esp),%eax
    1580:	89 f9                	mov    %edi,%ecx
    1582:	ba 5c 00 00 00       	mov    $0x5c,%edx
			1583: R_386_32	.rodata
    1587:	e8 fc ff ff ff       	call   1588 <ext3_free_blocks_sb+0x306>
			1588: R_386_PC32	__ext3_std_error
    158c:	eb 0b                	jmp    1599 <ext3_free_blocks_sb+0x317>
    158e:	89 d8                	mov    %ebx,%eax
    1590:	e8 fc ff ff ff       	call   1591 <ext3_free_blocks_sb+0x30f>
			1591: R_386_PC32	__brelse
    1595:	85 ff                	test   %edi,%edi
    1597:	75 e3                	jne    157c <ext3_free_blocks_sb+0x2fa>
    1599:	83 c4 3c             	add    $0x3c,%esp
    159c:	5b                   	pop    %ebx
    159d:	5e                   	pop    %esi
    159e:	5f                   	pop    %edi
    159f:	5d                   	pop    %ebp
    15a0:	c3                   	ret    

000015a1 <ext3_free_blocks>:
    15a1:	56                   	push   %esi
    15a2:	53                   	push   %ebx
    15a3:	89 d3                	mov    %edx,%ebx
    15a5:	83 ec 04             	sub    $0x4,%esp
    15a8:	8b 92 a4 00 00 00    	mov    0xa4(%edx),%edx
    15ae:	85 d2                	test   %edx,%edx
    15b0:	75 0d                	jne    15bf <ext3_free_blocks+0x1e>
    15b2:	68 3f 03 00 00       	push   $0x33f
			15b3: R_386_32	.rodata.str1.1
    15b7:	e8 fc ff ff ff       	call   15b8 <ext3_free_blocks+0x17>
			15b8: R_386_PC32	printk
    15bc:	58                   	pop    %eax
    15bd:	eb 1f                	jmp    15de <ext3_free_blocks+0x3d>
    15bf:	89 e6                	mov    %esp,%esi
    15c1:	56                   	push   %esi
    15c2:	ff 74 24 14          	pushl  0x14(%esp)
    15c6:	e8 fc ff ff ff       	call   15c7 <ext3_free_blocks+0x26>
			15c7: R_386_PC32	ext3_free_blocks_sb
    15cb:	8b 54 24 08          	mov    0x8(%esp),%edx
    15cf:	59                   	pop    %ecx
    15d0:	5e                   	pop    %esi
    15d1:	85 d2                	test   %edx,%edx
    15d3:	74 09                	je     15de <ext3_free_blocks+0x3d>
    15d5:	31 c9                	xor    %ecx,%ecx
    15d7:	89 d8                	mov    %ebx,%eax
    15d9:	e8 65 ec ff ff       	call   243 <vfs_dq_free_block>
    15de:	58                   	pop    %eax
    15df:	5b                   	pop    %ebx
    15e0:	5e                   	pop    %esi
    15e1:	c3                   	ret    
    15e2:	90                   	nop
    15e3:	90                   	nop

000015e4 <ext3_check_dir_entry>:
    15e4:	55                   	push   %ebp
    15e5:	57                   	push   %edi
    15e6:	56                   	push   %esi
    15e7:	be 00 00 01 00       	mov    $0x10000,%esi
    15ec:	53                   	push   %ebx
    15ed:	0f b7 59 04          	movzwl 0x4(%ecx),%ebx
    15f1:	81 fb ff ff 00 00    	cmp    $0xffff,%ebx
    15f7:	0f 44 de             	cmove  %esi,%ebx
    15fa:	be 64 03 00 00       	mov    $0x364,%esi
			15fb: R_386_32	.rodata.str1.1
    15ff:	83 fb 0b             	cmp    $0xb,%ebx
    1602:	7e 50                	jle    1654 <ext3_check_dir_entry+0x70>
    1604:	f6 c3 03             	test   $0x3,%bl
    1607:	be 84 03 00 00       	mov    $0x384,%esi
			1608: R_386_32	.rodata.str1.1
    160c:	75 46                	jne    1654 <ext3_check_dir_entry+0x70>
    160e:	0f b6 79 06          	movzbl 0x6(%ecx),%edi
    1612:	be 95 03 00 00       	mov    $0x395,%esi
			1613: R_386_32	.rodata.str1.1
    1617:	83 c7 0b             	add    $0xb,%edi
    161a:	83 e7 fc             	and    $0xfffffffc,%edi
    161d:	39 fb                	cmp    %edi,%ebx
    161f:	7c 33                	jl     1654 <ext3_check_dir_entry+0x70>
    1621:	8b 74 24 14          	mov    0x14(%esp),%esi
    1625:	89 cd                	mov    %ecx,%ebp
    1627:	8b ba a4 00 00 00    	mov    0xa4(%edx),%edi
    162d:	2b 6e 18             	sub    0x18(%esi),%ebp
    1630:	be b7 03 00 00       	mov    $0x3b7,%esi
			1631: R_386_32	.rodata.str1.1
    1635:	01 dd                	add    %ebx,%ebp
    1637:	3b 6f 0c             	cmp    0xc(%edi),%ebp
    163a:	77 18                	ja     1654 <ext3_check_dir_entry+0x70>
    163c:	8b b7 84 01 00 00    	mov    0x184(%edi),%esi
    1642:	8b 29                	mov    (%ecx),%ebp
    1644:	8b 7e 34             	mov    0x34(%esi),%edi
    1647:	be d5 03 00 00       	mov    $0x3d5,%esi
			1648: R_386_32	.rodata.str1.1
    164c:	3b 2f                	cmp    (%edi),%ebp
    164e:	77 04                	ja     1654 <ext3_check_dir_entry+0x70>
    1650:	31 f6                	xor    %esi,%esi
    1652:	eb 24                	jmp    1678 <ext3_check_dir_entry+0x94>
    1654:	0f b6 79 06          	movzbl 0x6(%ecx),%edi
    1658:	57                   	push   %edi
    1659:	53                   	push   %ebx
    165a:	ff 31                	pushl  (%ecx)
    165c:	ff 74 24 24          	pushl  0x24(%esp)
    1660:	56                   	push   %esi
    1661:	ff 72 20             	pushl  0x20(%edx)
    1664:	68 e9 03 00 00       	push   $0x3e9
			1665: R_386_32	.rodata.str1.1
    1669:	50                   	push   %eax
    166a:	ff b2 a4 00 00 00    	pushl  0xa4(%edx)
    1670:	e8 fc ff ff ff       	call   1671 <ext3_check_dir_entry+0x8d>
			1671: R_386_PC32	ext3_error
    1675:	83 c4 24             	add    $0x24,%esp
    1678:	31 c0                	xor    %eax,%eax
    167a:	85 f6                	test   %esi,%esi
    167c:	0f 94 c0             	sete   %al
    167f:	5b                   	pop    %ebx
    1680:	5e                   	pop    %esi
    1681:	5f                   	pop    %edi
    1682:	5d                   	pop    %ebp
    1683:	c3                   	ret    

00001684 <free_rb_tree_fname>:
    1684:	55                   	push   %ebp
    1685:	89 c5                	mov    %eax,%ebp
    1687:	57                   	push   %edi
    1688:	56                   	push   %esi
    1689:	53                   	push   %ebx
    168a:	83 ec 04             	sub    $0x4,%esp
    168d:	8b 30                	mov    (%eax),%esi
    168f:	eb 57                	jmp    16e8 <free_rb_tree_fname+0x64>
    1691:	8b 7e 08             	mov    0x8(%esi),%edi
    1694:	85 ff                	test   %edi,%edi
    1696:	75 4e                	jne    16e6 <free_rb_tree_fname+0x62>
    1698:	8b 7e 04             	mov    0x4(%esi),%edi
    169b:	85 ff                	test   %edi,%edi
    169d:	75 47                	jne    16e6 <free_rb_tree_fname+0x62>
    169f:	8b 1e                	mov    (%esi),%ebx
    16a1:	8d 46 f8             	lea    -0x8(%esi),%eax
    16a4:	83 e3 fc             	and    $0xfffffffc,%ebx
    16a7:	eb 0e                	jmp    16b7 <free_rb_tree_fname+0x33>
    16a9:	8b 50 14             	mov    0x14(%eax),%edx
    16ac:	89 14 24             	mov    %edx,(%esp)
    16af:	e8 fc ff ff ff       	call   16b0 <free_rb_tree_fname+0x2c>
			16b0: R_386_PC32	kfree
    16b4:	8b 04 24             	mov    (%esp),%eax
    16b7:	85 c0                	test   %eax,%eax
    16b9:	75 ee                	jne    16a9 <free_rb_tree_fname+0x25>
    16bb:	85 db                	test   %ebx,%ebx
    16bd:	75 09                	jne    16c8 <free_rb_tree_fname+0x44>
    16bf:	c7 45 00 00 00 00 00 	movl   $0x0,0x0(%ebp)
    16c6:	eb 1e                	jmp    16e6 <free_rb_tree_fname+0x62>
    16c8:	39 73 08             	cmp    %esi,0x8(%ebx)
    16cb:	75 0b                	jne    16d8 <free_rb_tree_fname+0x54>
    16cd:	c7 43 08 00 00 00 00 	movl   $0x0,0x8(%ebx)
    16d4:	89 df                	mov    %ebx,%edi
    16d6:	eb 0e                	jmp    16e6 <free_rb_tree_fname+0x62>
    16d8:	39 73 04             	cmp    %esi,0x4(%ebx)
    16db:	89 df                	mov    %ebx,%edi
    16dd:	75 07                	jne    16e6 <free_rb_tree_fname+0x62>
    16df:	c7 43 04 00 00 00 00 	movl   $0x0,0x4(%ebx)
    16e6:	89 fe                	mov    %edi,%esi
    16e8:	85 f6                	test   %esi,%esi
    16ea:	75 a5                	jne    1691 <free_rb_tree_fname+0xd>
    16ec:	58                   	pop    %eax
    16ed:	5b                   	pop    %ebx
    16ee:	5e                   	pop    %esi
    16ef:	5f                   	pop    %edi
    16f0:	5d                   	pop    %ebp
    16f1:	c3                   	ret    

000016f2 <ext3_htree_free_dir_info>:
    16f2:	53                   	push   %ebx
    16f3:	89 c3                	mov    %eax,%ebx
    16f5:	e8 8a ff ff ff       	call   1684 <free_rb_tree_fname>
    16fa:	89 d8                	mov    %ebx,%eax
    16fc:	5b                   	pop    %ebx
    16fd:	e9 fc ff ff ff       	jmp    16fe <ext3_htree_free_dir_info+0xc>
			16fe: R_386_PC32	kfree

00001702 <ext3_release_dir>:
    1702:	8b 42 70             	mov    0x70(%edx),%eax
    1705:	85 c0                	test   %eax,%eax
    1707:	74 05                	je     170e <ext3_release_dir+0xc>
    1709:	e8 fc ff ff ff       	call   170a <ext3_release_dir+0x8>
			170a: R_386_PC32	ext3_htree_free_dir_info
    170e:	31 c0                	xor    %eax,%eax
    1710:	c3                   	ret    

00001711 <call_filldir>:
    1711:	55                   	push   %ebp
    1712:	57                   	push   %edi
    1713:	56                   	push   %esi
    1714:	89 c6                	mov    %eax,%esi
    1716:	53                   	push   %ebx
    1717:	83 ec 18             	sub    $0x18,%esp
    171a:	89 54 24 08          	mov    %edx,0x8(%esp)
    171e:	8b 5c 24 2c          	mov    0x2c(%esp),%ebx
    1722:	89 4c 24 0c          	mov    %ecx,0xc(%esp)
    1726:	8b 68 70             	mov    0x70(%eax),%ebp
    1729:	8b 40 0c             	mov    0xc(%eax),%eax
    172c:	85 db                	test   %ebx,%ebx
    172e:	8b 40 10             	mov    0x10(%eax),%eax
    1731:	8b b8 a4 00 00 00    	mov    0xa4(%eax),%edi
    1737:	75 12                	jne    174b <call_filldir+0x3a>
    1739:	68 3a 04 00 00       	push   $0x43a
			173a: R_386_32	.rodata.str1.1
    173e:	e8 fc ff ff ff       	call   173f <call_filldir+0x2e>
			173f: R_386_PC32	printk
    1743:	31 c0                	xor    %eax,%eax
    1745:	5a                   	pop    %edx
    1746:	e9 85 00 00 00       	jmp    17d0 <call_filldir+0xbf>
    174b:	8b 03                	mov    (%ebx),%eax
    174d:	c7 44 24 04 00 00 00 	movl   $0x0,0x4(%esp)
    1754:	00 
    1755:	d1 e8                	shr    %eax
    1757:	89 04 24             	mov    %eax,(%esp)
    175a:	8b 97 84 01 00 00    	mov    0x184(%edi),%edx
    1760:	8a 43 1d             	mov    0x1d(%ebx),%al
    1763:	8b 52 34             	mov    0x34(%edx),%edx
    1766:	f6 42 60 02          	testb  $0x2,0x60(%edx)
    176a:	74 10                	je     177c <call_filldir+0x6b>
    176c:	0f b6 c0             	movzbl %al,%eax
    176f:	83 f8 07             	cmp    $0x7,%eax
    1772:	7f 08                	jg     177c <call_filldir+0x6b>
    1774:	8a 80 fc 00 00 00    	mov    0xfc(%eax),%al
			1776: R_386_32	.rodata
    177a:	eb 02                	jmp    177e <call_filldir+0x6d>
    177c:	31 c0                	xor    %eax,%eax
    177e:	0f b6 c0             	movzbl %al,%eax
    1781:	0f b6 4b 1c          	movzbl 0x1c(%ebx),%ecx
    1785:	50                   	push   %eax
    1786:	8b 43 18             	mov    0x18(%ebx),%eax
    1789:	8d 53 1e             	lea    0x1e(%ebx),%edx
    178c:	c7 44 24 18 00 00 00 	movl   $0x0,0x18(%esp)
    1793:	00 
    1794:	89 44 24 14          	mov    %eax,0x14(%esp)
    1798:	ff 74 24 18          	pushl  0x18(%esp)
    179c:	ff 74 24 18          	pushl  0x18(%esp)
    17a0:	ff 74 24 10          	pushl  0x10(%esp)
    17a4:	ff 74 24 10          	pushl  0x10(%esp)
    17a8:	8b 44 24 1c          	mov    0x1c(%esp),%eax
    17ac:	ff 54 24 20          	call   *0x20(%esp)
    17b0:	83 c4 14             	add    $0x14,%esp
    17b3:	85 c0                	test   %eax,%eax
    17b5:	74 12                	je     17c9 <call_filldir+0xb8>
    17b7:	8b 14 24             	mov    (%esp),%edx
    17ba:	8b 4c 24 04          	mov    0x4(%esp),%ecx
    17be:	89 56 24             	mov    %edx,0x24(%esi)
    17c1:	89 4e 28             	mov    %ecx,0x28(%esi)
    17c4:	89 5d 08             	mov    %ebx,0x8(%ebp)
    17c7:	eb 07                	jmp    17d0 <call_filldir+0xbf>
    17c9:	8b 5b 14             	mov    0x14(%ebx),%ebx
    17cc:	85 db                	test   %ebx,%ebx
    17ce:	75 8a                	jne    175a <call_filldir+0x49>
    17d0:	83 c4 18             	add    $0x18,%esp
    17d3:	5b                   	pop    %ebx
    17d4:	5e                   	pop    %esi
    17d5:	5f                   	pop    %edi
    17d6:	5d                   	pop    %ebp
    17d7:	c3                   	ret    

000017d8 <T.499>:
    17d8:	ba d0 80 00 00       	mov    $0x80d0,%edx
    17dd:	e9 fc ff ff ff       	jmp    17de <T.499+0x6>
			17de: R_386_PC32	__kmalloc

000017e2 <ext3_htree_store_dirent>:
    17e2:	55                   	push   %ebp
    17e3:	57                   	push   %edi
    17e4:	89 cf                	mov    %ecx,%edi
    17e6:	56                   	push   %esi
    17e7:	89 d6                	mov    %edx,%esi
    17e9:	53                   	push   %ebx
    17ea:	83 ec 04             	sub    $0x4,%esp
    17ed:	8b 50 70             	mov    0x70(%eax),%edx
    17f0:	8b 6c 24 18          	mov    0x18(%esp),%ebp
    17f4:	0f b6 45 06          	movzbl 0x6(%ebp),%eax
    17f8:	89 14 24             	mov    %edx,(%esp)
    17fb:	83 c0 21             	add    $0x21,%eax
    17fe:	e8 d5 ff ff ff       	call   17d8 <T.499>
    1803:	8b 14 24             	mov    (%esp),%edx
    1806:	89 c3                	mov    %eax,%ebx
    1808:	b8 f4 ff ff ff       	mov    $0xfffffff4,%eax
    180d:	85 db                	test   %ebx,%ebx
    180f:	0f 84 9f 00 00 00    	je     18b4 <ext3_htree_store_dirent+0xd2>
    1815:	89 33                	mov    %esi,(%ebx)
    1817:	8d 75 08             	lea    0x8(%ebp),%esi
    181a:	89 7b 04             	mov    %edi,0x4(%ebx)
    181d:	8b 45 00             	mov    0x0(%ebp),%eax
    1820:	8d 7b 1e             	lea    0x1e(%ebx),%edi
    1823:	89 43 18             	mov    %eax,0x18(%ebx)
    1826:	8a 45 06             	mov    0x6(%ebp),%al
    1829:	88 43 1c             	mov    %al,0x1c(%ebx)
    182c:	8a 45 07             	mov    0x7(%ebp),%al
    182f:	88 43 1d             	mov    %al,0x1d(%ebx)
    1832:	0f b6 45 06          	movzbl 0x6(%ebp),%eax
    1836:	89 c1                	mov    %eax,%ecx
    1838:	c1 e9 02             	shr    $0x2,%ecx
    183b:	f3 a5                	rep movsl %ds:(%esi),%es:(%edi)
    183d:	89 c1                	mov    %eax,%ecx
    183f:	83 e1 03             	and    $0x3,%ecx
    1842:	74 02                	je     1846 <ext3_htree_store_dirent+0x64>
    1844:	f3 a4                	rep movsb %ds:(%esi),%es:(%edi)
    1846:	0f b6 45 06          	movzbl 0x6(%ebp),%eax
    184a:	89 d1                	mov    %edx,%ecx
    184c:	31 f6                	xor    %esi,%esi
    184e:	c6 44 03 1e 00       	movb   $0x0,0x1e(%ebx,%eax,1)
    1853:	eb 3c                	jmp    1891 <ext3_htree_store_dirent+0xaf>
    1855:	8b 48 f8             	mov    -0x8(%eax),%ecx
    1858:	8d 70 f8             	lea    -0x8(%eax),%esi
    185b:	39 0b                	cmp    %ecx,(%ebx)
    185d:	75 13                	jne    1872 <ext3_htree_store_dirent+0x90>
    185f:	8b 4b 04             	mov    0x4(%ebx),%ecx
    1862:	3b 4e 04             	cmp    0x4(%esi),%ecx
    1865:	75 19                	jne    1880 <ext3_htree_store_dirent+0x9e>
    1867:	8b 46 14             	mov    0x14(%esi),%eax
    186a:	89 43 14             	mov    %eax,0x14(%ebx)
    186d:	89 5e 14             	mov    %ebx,0x14(%esi)
    1870:	eb 40                	jmp    18b2 <ext3_htree_store_dirent+0xd0>
    1872:	73 05                	jae    1879 <ext3_htree_store_dirent+0x97>
    1874:	8d 48 08             	lea    0x8(%eax),%ecx
    1877:	eb 16                	jmp    188f <ext3_htree_store_dirent+0xad>
    1879:	76 05                	jbe    1880 <ext3_htree_store_dirent+0x9e>
    187b:	8d 48 04             	lea    0x4(%eax),%ecx
    187e:	eb 0f                	jmp    188f <ext3_htree_store_dirent+0xad>
    1880:	8b 6b 04             	mov    0x4(%ebx),%ebp
    1883:	8d 48 08             	lea    0x8(%eax),%ecx
    1886:	3b 6e 04             	cmp    0x4(%esi),%ebp
    1889:	8d 78 04             	lea    0x4(%eax),%edi
    188c:	0f 43 cf             	cmovae %edi,%ecx
    188f:	89 c6                	mov    %eax,%esi
    1891:	8b 01                	mov    (%ecx),%eax
    1893:	85 c0                	test   %eax,%eax
    1895:	75 be                	jne    1855 <ext3_htree_store_dirent+0x73>
    1897:	8d 43 08             	lea    0x8(%ebx),%eax
    189a:	89 73 08             	mov    %esi,0x8(%ebx)
    189d:	c7 43 0c 00 00 00 00 	movl   $0x0,0xc(%ebx)
    18a4:	c7 43 10 00 00 00 00 	movl   $0x0,0x10(%ebx)
    18ab:	89 01                	mov    %eax,(%ecx)
    18ad:	e8 fc ff ff ff       	call   18ae <ext3_htree_store_dirent+0xcc>
			18ae: R_386_PC32	rb_insert_color
    18b2:	31 c0                	xor    %eax,%eax
    18b4:	59                   	pop    %ecx
    18b5:	5b                   	pop    %ebx
    18b6:	5e                   	pop    %esi
    18b7:	5f                   	pop    %edi
    18b8:	5d                   	pop    %ebp
    18b9:	c3                   	ret    

000018ba <ext3_readdir>:
    18ba:	55                   	push   %ebp
    18bb:	57                   	push   %edi
    18bc:	56                   	push   %esi
    18bd:	53                   	push   %ebx
    18be:	89 c3                	mov    %eax,%ebx
    18c0:	83 ec 78             	sub    $0x78,%esp
    18c3:	89 54 24 20          	mov    %edx,0x20(%esp)
    18c7:	89 4c 24 24          	mov    %ecx,0x24(%esp)
    18cb:	8b 40 0c             	mov    0xc(%eax),%eax
    18ce:	8b 78 10             	mov    0x10(%eax),%edi
    18d1:	8b af a4 00 00 00    	mov    0xa4(%edi),%ebp
    18d7:	8b 85 84 01 00 00    	mov    0x184(%ebp),%eax
    18dd:	8b 40 34             	mov    0x34(%eax),%eax
    18e0:	f6 40 5c 20          	testb  $0x20,0x5c(%eax)
    18e4:	0f 84 f6 01 00 00    	je     1ae0 <ext3_readdir+0x226>
    18ea:	f6 47 a1 10          	testb  $0x10,-0x5f(%edi)
    18ee:	75 2a                	jne    191a <ext3_readdir+0x60>
    18f0:	0f b6 4d 10          	movzbl 0x10(%ebp),%ecx
    18f4:	8b 57 44             	mov    0x44(%edi),%edx
    18f7:	8b 47 40             	mov    0x40(%edi),%eax
    18fa:	0f ad d0             	shrd   %cl,%edx,%eax
    18fd:	d3 fa                	sar    %cl,%edx
    18ff:	89 d6                	mov    %edx,%esi
    1901:	c1 fe 1f             	sar    $0x1f,%esi
    1904:	f6 c1 20             	test   $0x20,%cl
    1907:	0f 45 c2             	cmovne %edx,%eax
    190a:	0f 45 d6             	cmovne %esi,%edx
    190d:	89 c1                	mov    %eax,%ecx
    190f:	83 f1 01             	xor    $0x1,%ecx
    1912:	09 d1                	or     %edx,%ecx
    1914:	0f 85 c6 01 00 00    	jne    1ae0 <ext3_readdir+0x226>
    191a:	8b 73 70             	mov    0x70(%ebx),%esi
    191d:	85 f6                	test   %esi,%esi
    191f:	75 3a                	jne    195b <ext3_readdir+0xa1>
    1921:	8b 53 24             	mov    0x24(%ebx),%edx
    1924:	b8 20 00 00 00       	mov    $0x20,%eax
    1929:	8b 4b 28             	mov    0x28(%ebx),%ecx
    192c:	89 54 24 08          	mov    %edx,0x8(%esp)
    1930:	89 4c 24 0c          	mov    %ecx,0xc(%esp)
    1934:	e8 9f fe ff ff       	call   17d8 <T.499>
    1939:	8b 54 24 08          	mov    0x8(%esp),%edx
    193d:	89 c6                	mov    %eax,%esi
    193f:	b8 f4 ff ff ff       	mov    $0xfffffff4,%eax
    1944:	85 f6                	test   %esi,%esi
    1946:	0f 84 d7 04 00 00    	je     1e23 <ext3_readdir+0x569>
    194c:	01 d2                	add    %edx,%edx
    194e:	89 56 14             	mov    %edx,0x14(%esi)
    1951:	c7 46 18 00 00 00 00 	movl   $0x0,0x18(%esi)
    1958:	89 73 70             	mov    %esi,0x70(%ebx)
    195b:	8b 43 24             	mov    0x24(%ebx),%eax
    195e:	8b 4b 28             	mov    0x28(%ebx),%ecx
    1961:	89 44 24 18          	mov    %eax,0x18(%esp)
    1965:	35 ff ff ff 7f       	xor    $0x7fffffff,%eax
    196a:	89 44 24 10          	mov    %eax,0x10(%esp)
    196e:	8b 54 24 10          	mov    0x10(%esp),%edx
    1972:	31 c0                	xor    %eax,%eax
    1974:	09 ca                	or     %ecx,%edx
    1976:	0f 84 a7 04 00 00    	je     1e23 <ext3_readdir+0x569>
    197c:	39 4e 10             	cmp    %ecx,0x10(%esi)
    197f:	75 09                	jne    198a <ext3_readdir+0xd0>
    1981:	8b 4c 24 18          	mov    0x18(%esp),%ecx
    1985:	39 4e 0c             	cmp    %ecx,0xc(%esi)
    1988:	74 24                	je     19ae <ext3_readdir+0xf4>
    198a:	89 f0                	mov    %esi,%eax
    198c:	e8 f3 fc ff ff       	call   1684 <free_rb_tree_fname>
    1991:	c7 46 04 00 00 00 00 	movl   $0x0,0x4(%esi)
    1998:	c7 46 08 00 00 00 00 	movl   $0x0,0x8(%esi)
    199f:	8b 43 24             	mov    0x24(%ebx),%eax
    19a2:	c7 46 18 00 00 00 00 	movl   $0x0,0x18(%esi)
    19a9:	01 c0                	add    %eax,%eax
    19ab:	89 46 14             	mov    %eax,0x14(%esi)
    19ae:	8b 46 08             	mov    0x8(%esi),%eax
    19b1:	85 c0                	test   %eax,%eax
    19b3:	74 25                	je     19da <ext3_readdir+0x120>
    19b5:	50                   	push   %eax
    19b6:	8b 54 24 24          	mov    0x24(%esp),%edx
    19ba:	89 d8                	mov    %ebx,%eax
    19bc:	8b 4c 24 28          	mov    0x28(%esp),%ecx
    19c0:	e8 4c fd ff ff       	call   1711 <call_filldir>
    19c5:	5a                   	pop    %edx
    19c6:	85 c0                	test   %eax,%eax
    19c8:	0f 85 e1 00 00 00    	jne    1aaf <ext3_readdir+0x1f5>
    19ce:	c7 46 08 00 00 00 00 	movl   $0x0,0x8(%esi)
    19d5:	e9 8e 00 00 00       	jmp    1a68 <ext3_readdir+0x1ae>
    19da:	83 7e 04 00          	cmpl   $0x0,0x4(%esi)
    19de:	75 0a                	jne    19ea <ext3_readdir+0x130>
    19e0:	89 f0                	mov    %esi,%eax
    19e2:	e8 fc ff ff ff       	call   19e3 <ext3_readdir+0x129>
			19e3: R_386_PC32	rb_first
    19e7:	89 46 04             	mov    %eax,0x4(%esi)
    19ea:	83 7e 04 00          	cmpl   $0x0,0x4(%esi)
    19ee:	74 10                	je     1a00 <ext3_readdir+0x146>
    19f0:	8b 53 68             	mov    0x68(%ebx),%edx
    19f3:	3b 57 3c             	cmp    0x3c(%edi),%edx
    19f6:	8b 43 64             	mov    0x64(%ebx),%eax
    19f9:	75 05                	jne    1a00 <ext3_readdir+0x146>
    19fb:	3b 47 38             	cmp    0x38(%edi),%eax
    19fe:	74 41                	je     1a41 <ext3_readdir+0x187>
    1a00:	89 f0                	mov    %esi,%eax
    1a02:	c7 46 04 00 00 00 00 	movl   $0x0,0x4(%esi)
    1a09:	e8 76 fc ff ff       	call   1684 <free_rb_tree_fname>
    1a0e:	8b 47 38             	mov    0x38(%edi),%eax
    1a11:	8b 57 3c             	mov    0x3c(%edi),%edx
    1a14:	89 43 64             	mov    %eax,0x64(%ebx)
    1a17:	8d 46 1c             	lea    0x1c(%esi),%eax
    1a1a:	89 53 68             	mov    %edx,0x68(%ebx)
    1a1d:	8b 4e 18             	mov    0x18(%esi),%ecx
    1a20:	8b 56 14             	mov    0x14(%esi),%edx
    1a23:	50                   	push   %eax
    1a24:	89 d8                	mov    %ebx,%eax
    1a26:	e8 fc ff ff ff       	call   1a27 <ext3_readdir+0x16d>
			1a27: R_386_PC32	ext3_htree_fill_tree
    1a2b:	59                   	pop    %ecx
    1a2c:	83 f8 00             	cmp    $0x0,%eax
    1a2f:	0f 8c 8b 00 00 00    	jl     1ac0 <ext3_readdir+0x206>
    1a35:	74 59                	je     1a90 <ext3_readdir+0x1d6>
    1a37:	89 f0                	mov    %esi,%eax
    1a39:	e8 fc ff ff ff       	call   1a3a <ext3_readdir+0x180>
			1a3a: R_386_PC32	rb_first
    1a3e:	89 46 04             	mov    %eax,0x4(%esi)
    1a41:	8b 56 04             	mov    0x4(%esi),%edx
    1a44:	8d 42 f8             	lea    -0x8(%edx),%eax
    1a47:	8b 52 f8             	mov    -0x8(%edx),%edx
    1a4a:	89 56 14             	mov    %edx,0x14(%esi)
    1a4d:	8b 50 04             	mov    0x4(%eax),%edx
    1a50:	89 56 18             	mov    %edx,0x18(%esi)
    1a53:	50                   	push   %eax
    1a54:	8b 54 24 24          	mov    0x24(%esp),%edx
    1a58:	89 d8                	mov    %ebx,%eax
    1a5a:	8b 4c 24 28          	mov    0x28(%esp),%ecx
    1a5e:	e8 ae fc ff ff       	call   1711 <call_filldir>
    1a63:	5a                   	pop    %edx
    1a64:	85 c0                	test   %eax,%eax
    1a66:	75 47                	jne    1aaf <ext3_readdir+0x1f5>
    1a68:	8b 46 04             	mov    0x4(%esi),%eax
    1a6b:	e8 fc ff ff ff       	call   1a6c <ext3_readdir+0x1b2>
			1a6c: R_386_PC32	rb_next
    1a70:	85 c0                	test   %eax,%eax
    1a72:	89 46 04             	mov    %eax,0x4(%esi)
    1a75:	74 11                	je     1a88 <ext3_readdir+0x1ce>
    1a77:	8b 50 f8             	mov    -0x8(%eax),%edx
    1a7a:	89 56 14             	mov    %edx,0x14(%esi)
    1a7d:	8b 40 fc             	mov    -0x4(%eax),%eax
    1a80:	89 46 18             	mov    %eax,0x18(%esi)
    1a83:	e9 62 ff ff ff       	jmp    19ea <ext3_readdir+0x130>
    1a88:	8b 46 1c             	mov    0x1c(%esi),%eax
    1a8b:	83 f8 ff             	cmp    $0xffffffff,%eax
    1a8e:	75 10                	jne    1aa0 <ext3_readdir+0x1e6>
    1a90:	c7 43 24 ff ff ff 7f 	movl   $0x7fffffff,0x24(%ebx)
    1a97:	c7 43 28 00 00 00 00 	movl   $0x0,0x28(%ebx)
    1a9e:	eb 0f                	jmp    1aaf <ext3_readdir+0x1f5>
    1aa0:	89 46 14             	mov    %eax,0x14(%esi)
    1aa3:	c7 46 18 00 00 00 00 	movl   $0x0,0x18(%esi)
    1aaa:	e9 3b ff ff ff       	jmp    19ea <ext3_readdir+0x130>
    1aaf:	8b 43 24             	mov    0x24(%ebx),%eax
    1ab2:	8b 53 28             	mov    0x28(%ebx),%edx
    1ab5:	89 46 0c             	mov    %eax,0xc(%esi)
    1ab8:	89 56 10             	mov    %edx,0x10(%esi)
    1abb:	e9 61 03 00 00       	jmp    1e21 <ext3_readdir+0x567>
    1ac0:	3d 08 db fe ff       	cmp    $0xfffedb08,%eax
    1ac5:	0f 85 58 03 00 00    	jne    1e23 <ext3_readdir+0x569>
    1acb:	8b 43 0c             	mov    0xc(%ebx),%eax
    1ace:	c7 44 24 74 08 db fe 	movl   $0xfffedb08,0x74(%esp)
    1ad5:	ff 
    1ad6:	8b 40 10             	mov    0x10(%eax),%eax
    1ad9:	81 60 a0 ff ef ff ff 	andl   $0xffffefff,-0x60(%eax)
    1ae0:	8b 75 0c             	mov    0xc(%ebp),%esi
    1ae3:	8d 43 48             	lea    0x48(%ebx),%eax
    1ae6:	31 d2                	xor    %edx,%edx
    1ae8:	89 44 24 2c          	mov    %eax,0x2c(%esp)
    1aec:	c7 44 24 28 00 00 00 	movl   $0x0,0x28(%esp)
    1af3:	00 
    1af4:	c7 44 24 18 00 00 00 	movl   $0x0,0x18(%esp)
    1afb:	00 
    1afc:	4e                   	dec    %esi
    1afd:	23 73 24             	and    0x24(%ebx),%esi
    1b00:	e9 f3 02 00 00       	jmp    1df8 <ext3_readdir+0x53e>
    1b05:	0f b6 4d 10          	movzbl 0x10(%ebp),%ecx
    1b09:	c7 44 24 3c 00 00 00 	movl   $0x0,0x3c(%esp)
    1b10:	00 
    1b11:	0f ad d0             	shrd   %cl,%edx,%eax
    1b14:	d3 fa                	sar    %cl,%edx
    1b16:	f6 c1 20             	test   $0x20,%cl
    1b19:	0f 45 c2             	cmovne %edx,%eax
    1b1c:	89 44 24 10          	mov    %eax,0x10(%esp)
    1b20:	6a 00                	push   $0x0
    1b22:	8d 54 24 40          	lea    0x40(%esp),%edx
    1b26:	52                   	push   %edx
    1b27:	31 d2                	xor    %edx,%edx
    1b29:	6a 01                	push   $0x1
    1b2b:	8b 44 24 1c          	mov    0x1c(%esp),%eax
    1b2f:	52                   	push   %edx
    1b30:	89 fa                	mov    %edi,%edx
    1b32:	50                   	push   %eax
    1b33:	31 c0                	xor    %eax,%eax
    1b35:	e8 fc ff ff ff       	call   1b36 <ext3_readdir+0x27c>
			1b36: R_386_PC32	ext3_get_blocks_handle
    1b3a:	89 84 24 88 00 00 00 	mov    %eax,0x88(%esp)
    1b41:	83 c4 14             	add    $0x14,%esp
    1b44:	85 c0                	test   %eax,%eax
    1b46:	7e 5e                	jle    1ba6 <ext3_readdir+0x2ec>
    1b48:	8b 54 24 4c          	mov    0x4c(%esp),%edx
    1b4c:	b9 0c 00 00 00       	mov    $0xc,%ecx
    1b51:	8b 44 24 48          	mov    0x48(%esp),%eax
    1b55:	2b 4f 6c             	sub    0x6c(%edi),%ecx
    1b58:	0f ad d0             	shrd   %cl,%edx,%eax
    1b5b:	d3 ea                	shr    %cl,%edx
    1b5d:	f6 c1 20             	test   $0x20,%cl
    1b60:	0f 45 c2             	cmovne %edx,%eax
    1b63:	89 c6                	mov    %eax,%esi
    1b65:	8b 43 48             	mov    0x48(%ebx),%eax
    1b68:	39 c6                	cmp    %eax,%esi
    1b6a:	0f 82 bb 02 00 00    	jb     1e2b <ext3_readdir+0x571>
    1b70:	03 43 4c             	add    0x4c(%ebx),%eax
    1b73:	39 c6                	cmp    %eax,%esi
    1b75:	0f 83 b0 02 00 00    	jae    1e2b <ext3_readdir+0x571>
    1b7b:	8d 4c 24 74          	lea    0x74(%esp),%ecx
    1b7f:	89 f0                	mov    %esi,%eax
    1b81:	51                   	push   %ecx
    1b82:	31 d2                	xor    %edx,%edx
    1b84:	6a 00                	push   $0x0
    1b86:	8b 4c 24 18          	mov    0x18(%esp),%ecx
    1b8a:	0f a4 f2 0c          	shld   $0xc,%esi,%edx
    1b8e:	c1 e0 0c             	shl    $0xc,%eax
    1b91:	89 43 5c             	mov    %eax,0x5c(%ebx)
    1b94:	31 c0                	xor    %eax,%eax
    1b96:	89 53 60             	mov    %edx,0x60(%ebx)
    1b99:	89 fa                	mov    %edi,%edx
    1b9b:	e8 fc ff ff ff       	call   1b9c <ext3_readdir+0x2e2>
			1b9c: R_386_PC32	ext3_bread
    1ba0:	5e                   	pop    %esi
    1ba1:	5a                   	pop    %edx
    1ba2:	85 c0                	test   %eax,%eax
    1ba4:	75 78                	jne    1c1e <ext3_readdir+0x364>
    1ba6:	83 7c 24 28 00       	cmpl   $0x0,0x28(%esp)
    1bab:	75 1c                	jne    1bc9 <ext3_readdir+0x30f>
    1bad:	ff 73 28             	pushl  0x28(%ebx)
    1bb0:	ff 73 24             	pushl  0x24(%ebx)
    1bb3:	ff 77 20             	pushl  0x20(%edi)
    1bb6:	68 63 04 00 00       	push   $0x463
			1bb7: R_386_32	.rodata.str1.1
    1bbb:	68 ec 00 00 00       	push   $0xec
			1bbc: R_386_32	.rodata
    1bc0:	55                   	push   %ebp
    1bc1:	e8 fc ff ff ff       	call   1bc2 <ext3_readdir+0x308>
			1bc2: R_386_PC32	ext3_error
    1bc6:	83 c4 18             	add    $0x18,%esp
    1bc9:	8b 43 24             	mov    0x24(%ebx),%eax
    1bcc:	8b 53 28             	mov    0x28(%ebx),%edx
    1bcf:	89 44 24 10          	mov    %eax,0x10(%esp)
    1bd3:	89 54 24 14          	mov    %edx,0x14(%esp)
    1bd7:	8b 47 64             	mov    0x64(%edi),%eax
    1bda:	8b 57 68             	mov    0x68(%edi),%edx
    1bdd:	0f a4 c2 09          	shld   $0x9,%eax,%edx
    1be1:	c1 e0 09             	shl    $0x9,%eax
    1be4:	39 54 24 14          	cmp    %edx,0x14(%esp)
    1be8:	0f 87 33 02 00 00    	ja     1e21 <ext3_readdir+0x567>
    1bee:	72 0a                	jb     1bfa <ext3_readdir+0x340>
    1bf0:	39 44 24 10          	cmp    %eax,0x10(%esp)
    1bf4:	0f 87 27 02 00 00    	ja     1e21 <ext3_readdir+0x567>
    1bfa:	8b 45 0c             	mov    0xc(%ebp),%eax
    1bfd:	31 d2                	xor    %edx,%edx
    1bff:	2b 44 24 18          	sub    0x18(%esp),%eax
    1c03:	03 44 24 10          	add    0x10(%esp),%eax
    1c07:	13 54 24 14          	adc    0x14(%esp),%edx
    1c0b:	c7 44 24 28 01 00 00 	movl   $0x1,0x28(%esp)
    1c12:	00 
    1c13:	89 43 24             	mov    %eax,0x24(%ebx)
    1c16:	89 53 28             	mov    %edx,0x28(%ebx)
    1c19:	e9 e9 01 00 00       	jmp    1e07 <ext3_readdir+0x54d>
    1c1e:	8b 74 24 18          	mov    0x18(%esp),%esi
    1c22:	89 44 24 1c          	mov    %eax,0x1c(%esp)
    1c26:	c7 44 24 18 00 00 00 	movl   $0x0,0x18(%esp)
    1c2d:	00 
    1c2e:	eb 04                	jmp    1c34 <ext3_readdir+0x37a>
    1c30:	8b 7c 24 10          	mov    0x10(%esp),%edi
    1c34:	8b 53 68             	mov    0x68(%ebx),%edx
    1c37:	3b 57 3c             	cmp    0x3c(%edi),%edx
    1c3a:	8b 43 64             	mov    0x64(%ebx),%eax
    1c3d:	75 07                	jne    1c46 <ext3_readdir+0x38c>
    1c3f:	3b 47 38             	cmp    0x38(%edi),%eax
    1c42:	89 f1                	mov    %esi,%ecx
    1c44:	74 61                	je     1ca7 <ext3_readdir+0x3ed>
    1c46:	8b 55 0c             	mov    0xc(%ebp),%edx
    1c49:	31 c0                	xor    %eax,%eax
    1c4b:	89 74 24 30          	mov    %esi,0x30(%esp)
    1c4f:	89 54 24 10          	mov    %edx,0x10(%esp)
    1c53:	eb 23                	jmp    1c78 <ext3_readdir+0x3be>
    1c55:	8b 74 24 1c          	mov    0x1c(%esp),%esi
    1c59:	8b 76 18             	mov    0x18(%esi),%esi
    1c5c:	0f b7 54 06 04       	movzwl 0x4(%esi,%eax,1),%edx
    1c61:	81 fa ff ff 00 00    	cmp    $0xffff,%edx
    1c67:	75 07                	jne    1c70 <ext3_readdir+0x3b6>
    1c69:	ba 00 00 01 00       	mov    $0x10000,%edx
    1c6e:	eb 05                	jmp    1c75 <ext3_readdir+0x3bb>
    1c70:	83 fa 0b             	cmp    $0xb,%edx
    1c73:	76 11                	jbe    1c86 <ext3_readdir+0x3cc>
    1c75:	8d 04 02             	lea    (%edx,%eax,1),%eax
    1c78:	3b 44 24 30          	cmp    0x30(%esp),%eax
    1c7c:	89 c1                	mov    %eax,%ecx
    1c7e:	73 06                	jae    1c86 <ext3_readdir+0x3cc>
    1c80:	3b 44 24 10          	cmp    0x10(%esp),%eax
    1c84:	72 cf                	jb     1c55 <ext3_readdir+0x39b>
    1c86:	8b 54 24 10          	mov    0x10(%esp),%edx
    1c8a:	c7 43 28 00 00 00 00 	movl   $0x0,0x28(%ebx)
    1c91:	f7 da                	neg    %edx
    1c93:	23 53 24             	and    0x24(%ebx),%edx
    1c96:	09 c2                	or     %eax,%edx
    1c98:	89 53 24             	mov    %edx,0x24(%ebx)
    1c9b:	8b 47 38             	mov    0x38(%edi),%eax
    1c9e:	8b 57 3c             	mov    0x3c(%edi),%edx
    1ca1:	89 43 64             	mov    %eax,0x64(%ebx)
    1ca4:	89 53 68             	mov    %edx,0x68(%ebx)
    1ca7:	89 ce                	mov    %ecx,%esi
    1ca9:	89 7c 24 10          	mov    %edi,0x10(%esp)
    1cad:	e9 08 01 00 00       	jmp    1dba <ext3_readdir+0x500>
    1cb2:	8b 44 24 1c          	mov    0x1c(%esp),%eax
    1cb6:	89 f7                	mov    %esi,%edi
    1cb8:	03 78 18             	add    0x18(%eax),%edi
    1cbb:	56                   	push   %esi
    1cbc:	50                   	push   %eax
    1cbd:	8b 54 24 18          	mov    0x18(%esp),%edx
    1cc1:	b8 91 04 00 00       	mov    $0x491,%eax
			1cc2: R_386_32	.rodata.str1.1
    1cc6:	89 f9                	mov    %edi,%ecx
    1cc8:	e8 fc ff ff ff       	call   1cc9 <ext3_readdir+0x40f>
			1cc9: R_386_PC32	ext3_check_dir_entry
    1ccd:	59                   	pop    %ecx
    1cce:	5a                   	pop    %edx
    1ccf:	85 c0                	test   %eax,%eax
    1cd1:	75 2a                	jne    1cfd <ext3_readdir+0x443>
    1cd3:	8b 4d 0c             	mov    0xc(%ebp),%ecx
    1cd6:	8b 43 24             	mov    0x24(%ebx),%eax
    1cd9:	8b 53 28             	mov    0x28(%ebx),%edx
    1cdc:	49                   	dec    %ecx
    1cdd:	09 c8                	or     %ecx,%eax
    1cdf:	83 c0 01             	add    $0x1,%eax
    1ce2:	89 43 24             	mov    %eax,0x24(%ebx)
    1ce5:	8b 44 24 1c          	mov    0x1c(%esp),%eax
    1ce9:	83 d2 00             	adc    $0x0,%edx
    1cec:	89 53 28             	mov    %edx,0x28(%ebx)
    1cef:	e8 fc ff ff ff       	call   1cf0 <ext3_readdir+0x436>
			1cf0: R_386_PC32	__brelse
    1cf4:	8b 44 24 18          	mov    0x18(%esp),%eax
    1cf8:	e9 26 01 00 00       	jmp    1e23 <ext3_readdir+0x569>
    1cfd:	0f b7 47 04          	movzwl 0x4(%edi),%eax
    1d01:	ba 00 00 01 00       	mov    $0x10000,%edx
    1d06:	3d ff ff 00 00       	cmp    $0xffff,%eax
    1d0b:	0f 44 c2             	cmove  %edx,%eax
    1d0e:	01 c6                	add    %eax,%esi
    1d10:	8b 07                	mov    (%edi),%eax
    1d12:	85 c0                	test   %eax,%eax
    1d14:	0f 84 87 00 00 00    	je     1da1 <ext3_readdir+0x4e7>
    1d1a:	8b 4b 64             	mov    0x64(%ebx),%ecx
    1d1d:	8b 53 68             	mov    0x68(%ebx),%edx
    1d20:	89 4c 24 34          	mov    %ecx,0x34(%esp)
    1d24:	89 54 24 38          	mov    %edx,0x38(%esp)
    1d28:	8b 95 84 01 00 00    	mov    0x184(%ebp),%edx
    1d2e:	8a 4f 07             	mov    0x7(%edi),%cl
    1d31:	8b 52 34             	mov    0x34(%edx),%edx
    1d34:	f6 42 60 02          	testb  $0x2,0x60(%edx)
    1d38:	74 14                	je     1d4e <ext3_readdir+0x494>
    1d3a:	0f b6 c9             	movzbl %cl,%ecx
    1d3d:	83 f9 07             	cmp    $0x7,%ecx
    1d40:	7f 0c                	jg     1d4e <ext3_readdir+0x494>
    1d42:	8a 89 fc 00 00 00    	mov    0xfc(%ecx),%cl
			1d44: R_386_32	.rodata
    1d48:	88 4c 24 07          	mov    %cl,0x7(%esp)
    1d4c:	eb 05                	jmp    1d53 <ext3_readdir+0x499>
    1d4e:	c6 44 24 07 00       	movb   $0x0,0x7(%esp)
    1d53:	8d 57 08             	lea    0x8(%edi),%edx
    1d56:	0f b6 4f 06          	movzbl 0x6(%edi),%ecx
    1d5a:	89 54 24 30          	mov    %edx,0x30(%esp)
    1d5e:	0f b6 54 24 07       	movzbl 0x7(%esp),%edx
    1d63:	52                   	push   %edx
    1d64:	31 d2                	xor    %edx,%edx
    1d66:	52                   	push   %edx
    1d67:	50                   	push   %eax
    1d68:	ff 73 28             	pushl  0x28(%ebx)
    1d6b:	ff 73 24             	pushl  0x24(%ebx)
    1d6e:	8b 54 24 44          	mov    0x44(%esp),%edx
    1d72:	8b 44 24 34          	mov    0x34(%esp),%eax
    1d76:	ff 54 24 38          	call   *0x38(%esp)
    1d7a:	83 c4 14             	add    $0x14,%esp
    1d7d:	85 c0                	test   %eax,%eax
    1d7f:	89 c2                	mov    %eax,%edx
    1d81:	75 5e                	jne    1de1 <ext3_readdir+0x527>
    1d83:	8b 4c 24 38          	mov    0x38(%esp),%ecx
    1d87:	3b 4b 68             	cmp    0x68(%ebx),%ecx
    1d8a:	0f 85 a0 fe ff ff    	jne    1c30 <ext3_readdir+0x376>
    1d90:	8b 44 24 34          	mov    0x34(%esp),%eax
    1d94:	3b 43 64             	cmp    0x64(%ebx),%eax
    1d97:	0f 85 93 fe ff ff    	jne    1c30 <ext3_readdir+0x376>
    1d9d:	ff 44 24 18          	incl   0x18(%esp)
    1da1:	0f b7 47 04          	movzwl 0x4(%edi),%eax
    1da5:	ba 00 00 01 00       	mov    $0x10000,%edx
    1daa:	3d ff ff 00 00       	cmp    $0xffff,%eax
    1daf:	0f 44 c2             	cmove  %edx,%eax
    1db2:	31 d2                	xor    %edx,%edx
    1db4:	01 43 24             	add    %eax,0x24(%ebx)
    1db7:	11 53 28             	adc    %edx,0x28(%ebx)
    1dba:	8b 4c 24 10          	mov    0x10(%esp),%ecx
    1dbe:	8b 53 28             	mov    0x28(%ebx),%edx
    1dc1:	8b 43 24             	mov    0x24(%ebx),%eax
    1dc4:	3b 51 44             	cmp    0x44(%ecx),%edx
    1dc7:	7f 10                	jg     1dd9 <ext3_readdir+0x51f>
    1dc9:	7c 05                	jl     1dd0 <ext3_readdir+0x516>
    1dcb:	3b 41 40             	cmp    0x40(%ecx),%eax
    1dce:	73 09                	jae    1dd9 <ext3_readdir+0x51f>
    1dd0:	3b 75 0c             	cmp    0xc(%ebp),%esi
    1dd3:	0f 82 d9 fe ff ff    	jb     1cb2 <ext3_readdir+0x3f8>
    1dd9:	8b 7c 24 10          	mov    0x10(%esp),%edi
    1ddd:	31 d2                	xor    %edx,%edx
    1ddf:	eb 04                	jmp    1de5 <ext3_readdir+0x52b>
    1de1:	8b 7c 24 10          	mov    0x10(%esp),%edi
    1de5:	8b 44 24 1c          	mov    0x1c(%esp),%eax
    1de9:	31 f6                	xor    %esi,%esi
    1deb:	89 54 24 08          	mov    %edx,0x8(%esp)
    1def:	e8 fc ff ff ff       	call   1df0 <ext3_readdir+0x536>
			1df0: R_386_PC32	__brelse
    1df4:	8b 54 24 08          	mov    0x8(%esp),%edx
    1df8:	83 7c 24 18 00       	cmpl   $0x0,0x18(%esp)
    1dfd:	75 22                	jne    1e21 <ext3_readdir+0x567>
    1dff:	85 d2                	test   %edx,%edx
    1e01:	75 1e                	jne    1e21 <ext3_readdir+0x567>
    1e03:	89 74 24 18          	mov    %esi,0x18(%esp)
    1e07:	8b 53 28             	mov    0x28(%ebx),%edx
    1e0a:	3b 57 44             	cmp    0x44(%edi),%edx
    1e0d:	8b 43 24             	mov    0x24(%ebx),%eax
    1e10:	0f 8c ef fc ff ff    	jl     1b05 <ext3_readdir+0x24b>
    1e16:	7f 09                	jg     1e21 <ext3_readdir+0x567>
    1e18:	3b 47 40             	cmp    0x40(%edi),%eax
    1e1b:	0f 82 e4 fc ff ff    	jb     1b05 <ext3_readdir+0x24b>
    1e21:	31 c0                	xor    %eax,%eax
    1e23:	83 c4 78             	add    $0x78,%esp
    1e26:	5b                   	pop    %ebx
    1e27:	5e                   	pop    %esi
    1e28:	5f                   	pop    %edi
    1e29:	5d                   	pop    %ebp
    1e2a:	c3                   	ret    
    1e2b:	8b 85 94 00 00 00    	mov    0x94(%ebp),%eax
    1e31:	89 d9                	mov    %ebx,%ecx
    1e33:	8b 40 04             	mov    0x4(%eax),%eax
    1e36:	8b 80 ac 00 00 00    	mov    0xac(%eax),%eax
    1e3c:	6a 01                	push   $0x1
    1e3e:	56                   	push   %esi
    1e3f:	8b 54 24 34          	mov    0x34(%esp),%edx
    1e43:	e8 fc ff ff ff       	call   1e44 <ext3_readdir+0x58a>
			1e44: R_386_PC32	page_cache_sync_readahead
    1e48:	58                   	pop    %eax
    1e49:	5a                   	pop    %edx
    1e4a:	e9 2c fd ff ff       	jmp    1b7b <ext3_readdir+0x2c1>
    1e4f:	90                   	nop

00001e50 <ext3_release_file>:
    1e50:	55                   	push   %ebp
    1e51:	57                   	push   %edi
    1e52:	89 d7                	mov    %edx,%edi
    1e54:	56                   	push   %esi
    1e55:	8d b0 64 ff ff ff    	lea    -0x9c(%eax),%esi
    1e5b:	53                   	push   %ebx
    1e5c:	89 c3                	mov    %eax,%ebx
    1e5e:	f6 46 50 08          	testb  $0x8,0x50(%esi)
    1e62:	74 0f                	je     1e73 <ext3_release_file+0x23>
    1e64:	8b 80 ac 00 00 00    	mov    0xac(%eax),%eax
    1e6a:	e8 fc ff ff ff       	call   1e6b <ext3_release_file+0x1b>
			1e6b: R_386_PC32	filemap_flush
    1e6f:	83 66 50 f7          	andl   $0xfffffff7,0x50(%esi)
    1e73:	f6 47 20 02          	testb  $0x2,0x20(%edi)
    1e77:	74 24                	je     1e9d <ext3_release_file+0x4d>
    1e79:	8b 83 4c 01 00 00    	mov    0x14c(%ebx),%eax
    1e7f:	48                   	dec    %eax
    1e80:	75 1b                	jne    1e9d <ext3_release_file+0x4d>
    1e82:	8d ae 80 00 00 00    	lea    0x80(%esi),%ebp
    1e88:	89 e8                	mov    %ebp,%eax
    1e8a:	e8 fc ff ff ff       	call   1e8b <ext3_release_file+0x3b>
			1e8b: R_386_PC32	mutex_lock
    1e8f:	89 d8                	mov    %ebx,%eax
    1e91:	e8 fc ff ff ff       	call   1e92 <ext3_release_file+0x42>
			1e92: R_386_PC32	ext3_discard_reservation
    1e96:	89 e8                	mov    %ebp,%eax
    1e98:	e8 fc ff ff ff       	call   1e99 <ext3_release_file+0x49>
			1e99: R_386_PC32	mutex_unlock
    1e9d:	8b 83 a4 00 00 00    	mov    0xa4(%ebx),%eax
    1ea3:	8b 80 84 01 00 00    	mov    0x184(%eax),%eax
    1ea9:	8b 40 34             	mov    0x34(%eax),%eax
    1eac:	f6 40 5c 20          	testb  $0x20,0x5c(%eax)
    1eb0:	74 12                	je     1ec4 <ext3_release_file+0x74>
    1eb2:	f6 46 3d 10          	testb  $0x10,0x3d(%esi)
    1eb6:	74 0c                	je     1ec4 <ext3_release_file+0x74>
    1eb8:	8b 47 70             	mov    0x70(%edi),%eax
    1ebb:	85 c0                	test   %eax,%eax
    1ebd:	74 05                	je     1ec4 <ext3_release_file+0x74>
    1ebf:	e8 fc ff ff ff       	call   1ec0 <ext3_release_file+0x70>
			1ec0: R_386_PC32	ext3_htree_free_dir_info
    1ec4:	31 c0                	xor    %eax,%eax
    1ec6:	5b                   	pop    %ebx
    1ec7:	5e                   	pop    %esi
    1ec8:	5f                   	pop    %edi
    1ec9:	5d                   	pop    %ebp
    1eca:	c3                   	ret    
    1ecb:	90                   	nop

00001ecc <ext3_sync_file>:
    1ecc:	57                   	push   %edi
    1ecd:	56                   	push   %esi
    1ece:	53                   	push   %ebx
    1ecf:	8b 5a 10             	mov    0x10(%edx),%ebx
    1ed2:	8b 83 a4 00 00 00    	mov    0xa4(%ebx),%eax
    1ed8:	8b b0 84 01 00 00    	mov    0x184(%eax),%esi
    1ede:	f6 40 30 01          	testb  $0x1,0x30(%eax)
    1ee2:	8b be f4 00 00 00    	mov    0xf4(%esi),%edi
    1ee8:	0f 85 90 00 00 00    	jne    1f7e <ext3_sync_file+0xb2>
    1eee:	64 8b 15 00 00 00 00 	mov    %fs:0x0,%edx
			1ef1: R_386_32	per_cpu__current_task
    1ef5:	83 ba 44 03 00 00 00 	cmpl   $0x0,0x344(%edx)
    1efc:	74 04                	je     1f02 <ext3_sync_file+0x36>
    1efe:	0f 0b                	ud2a   
    1f00:	eb fe                	jmp    1f00 <ext3_sync_file+0x34>
    1f02:	0f b7 53 72          	movzwl 0x72(%ebx),%edx
    1f06:	81 e2 00 f0 00 00    	and    $0xf000,%edx
    1f0c:	81 fa 00 80 00 00    	cmp    $0x8000,%edx
    1f12:	75 1d                	jne    1f31 <ext3_sync_file+0x65>
    1f14:	8b 56 3c             	mov    0x3c(%esi),%edx
    1f17:	81 e2 00 0c 00 00    	and    $0xc00,%edx
    1f1d:	81 fa 00 04 00 00    	cmp    $0x400,%edx
    1f23:	74 0c                	je     1f31 <ext3_sync_file+0x65>
    1f25:	8d 93 64 ff ff ff    	lea    -0x9c(%ebx),%edx
    1f2b:	f6 42 3d 40          	testb  $0x40,0x3d(%edx)
    1f2f:	74 53                	je     1f84 <ext3_sync_file+0xb8>
    1f31:	5b                   	pop    %ebx
    1f32:	5e                   	pop    %esi
    1f33:	5f                   	pop    %edi
    1f34:	e9 fc ff ff ff       	jmp    1f35 <ext3_sync_file+0x69>
			1f35: R_386_PC32	ext3_force_commit
    1f39:	8b b2 98 00 00 00    	mov    0x98(%edx),%esi
    1f3f:	eb 06                	jmp    1f47 <ext3_sync_file+0x7b>
    1f41:	8b b2 94 00 00 00    	mov    0x94(%edx),%esi
    1f47:	89 f2                	mov    %esi,%edx
    1f49:	89 f8                	mov    %edi,%eax
    1f4b:	e8 fc ff ff ff       	call   1f4c <ext3_sync_file+0x80>
			1f4c: R_386_PC32	log_start_commit
    1f50:	85 c0                	test   %eax,%eax
    1f52:	74 0b                	je     1f5f <ext3_sync_file+0x93>
    1f54:	89 f2                	mov    %esi,%edx
    1f56:	89 f8                	mov    %edi,%eax
    1f58:	e8 fc ff ff ff       	call   1f59 <ext3_sync_file+0x8d>
			1f59: R_386_PC32	log_wait_commit
    1f5d:	eb 1f                	jmp    1f7e <ext3_sync_file+0xb2>
    1f5f:	8b 83 a4 00 00 00    	mov    0xa4(%ebx),%eax
    1f65:	8b 90 84 01 00 00    	mov    0x184(%eax),%edx
    1f6b:	f6 42 3e 02          	testb  $0x2,0x3e(%edx)
    1f6f:	74 0d                	je     1f7e <ext3_sync_file+0xb2>
    1f71:	8b 80 94 00 00 00    	mov    0x94(%eax),%eax
    1f77:	31 d2                	xor    %edx,%edx
    1f79:	e8 fc ff ff ff       	call   1f7a <ext3_sync_file+0xae>
			1f7a: R_386_PC32	blkdev_issue_flush
    1f7e:	31 c0                	xor    %eax,%eax
    1f80:	5b                   	pop    %ebx
    1f81:	5e                   	pop    %esi
    1f82:	5f                   	pop    %edi
    1f83:	c3                   	ret    
    1f84:	85 c9                	test   %ecx,%ecx
    1f86:	75 b1                	jne    1f39 <ext3_sync_file+0x6d>
    1f88:	eb b7                	jmp    1f41 <ext3_sync_file+0x75>
    1f8a:	90                   	nop
    1f8b:	90                   	nop

00001f8c <vfs_dq_free_inode>:
    1f8c:	53                   	push   %ebx
    1f8d:	8b 88 a4 00 00 00    	mov    0xa4(%eax),%ecx
    1f93:	8b 91 a8 00 00 00    	mov    0xa8(%ecx),%edx
    1f99:	f6 c2 01             	test   $0x1,%dl
    1f9c:	74 1b                	je     1fb9 <vfs_dq_free_inode+0x2d>
    1f9e:	f6 c2 04             	test   $0x4,%dl
    1fa1:	74 07                	je     1faa <vfs_dq_free_inode+0x1e>
    1fa3:	eb 14                	jmp    1fb9 <vfs_dq_free_inode+0x2d>
    1fa5:	80 e2 20             	and    $0x20,%dl
    1fa8:	75 14                	jne    1fbe <vfs_dq_free_inode+0x32>
    1faa:	8b 59 24             	mov    0x24(%ecx),%ebx
    1fad:	ba 01 00 00 00       	mov    $0x1,%edx
    1fb2:	31 c9                	xor    %ecx,%ecx
    1fb4:	ff 53 14             	call   *0x14(%ebx)
    1fb7:	eb 05                	jmp    1fbe <vfs_dq_free_inode+0x32>
    1fb9:	f6 c2 08             	test   $0x8,%dl
    1fbc:	75 e7                	jne    1fa5 <vfs_dq_free_inode+0x19>
    1fbe:	5b                   	pop    %ebx
    1fbf:	c3                   	ret    

00001fc0 <ext3_count_dirs>:
    1fc0:	57                   	push   %edi
    1fc1:	31 ff                	xor    %edi,%edi
    1fc3:	56                   	push   %esi
    1fc4:	31 f6                	xor    %esi,%esi
    1fc6:	53                   	push   %ebx
    1fc7:	89 c3                	mov    %eax,%ebx
    1fc9:	eb 16                	jmp    1fe1 <ext3_count_dirs+0x21>
    1fcb:	31 c9                	xor    %ecx,%ecx
    1fcd:	89 f2                	mov    %esi,%edx
    1fcf:	89 d8                	mov    %ebx,%eax
    1fd1:	e8 fc ff ff ff       	call   1fd2 <ext3_count_dirs+0x12>
			1fd2: R_386_PC32	ext3_get_group_desc
    1fd6:	85 c0                	test   %eax,%eax
    1fd8:	74 06                	je     1fe0 <ext3_count_dirs+0x20>
    1fda:	0f b7 40 10          	movzwl 0x10(%eax),%eax
    1fde:	01 c7                	add    %eax,%edi
    1fe0:	46                   	inc    %esi
    1fe1:	8b 83 84 01 00 00    	mov    0x184(%ebx),%eax
    1fe7:	3b 70 24             	cmp    0x24(%eax),%esi
    1fea:	72 df                	jb     1fcb <ext3_count_dirs+0xb>
    1fec:	89 f8                	mov    %edi,%eax
    1fee:	5b                   	pop    %ebx
    1fef:	5e                   	pop    %esi
    1ff0:	5f                   	pop    %edi
    1ff1:	c3                   	ret    

00001ff2 <ext3_count_free_inodes>:
    1ff2:	57                   	push   %edi
    1ff3:	31 ff                	xor    %edi,%edi
    1ff5:	56                   	push   %esi
    1ff6:	31 f6                	xor    %esi,%esi
    1ff8:	53                   	push   %ebx
    1ff9:	89 c3                	mov    %eax,%ebx
    1ffb:	eb 1b                	jmp    2018 <ext3_count_free_inodes+0x26>
    1ffd:	31 c9                	xor    %ecx,%ecx
    1fff:	89 f2                	mov    %esi,%edx
    2001:	89 d8                	mov    %ebx,%eax
    2003:	e8 fc ff ff ff       	call   2004 <ext3_count_free_inodes+0x12>
			2004: R_386_PC32	ext3_get_group_desc
    2008:	85 c0                	test   %eax,%eax
    200a:	74 0b                	je     2017 <ext3_count_free_inodes+0x25>
    200c:	0f b7 40 0e          	movzwl 0xe(%eax),%eax
    2010:	01 c7                	add    %eax,%edi
    2012:	e8 fc ff ff ff       	call   2013 <ext3_count_free_inodes+0x21>
			2013: R_386_PC32	_cond_resched
    2017:	46                   	inc    %esi
    2018:	8b 83 84 01 00 00    	mov    0x184(%ebx),%eax
    201e:	3b 70 24             	cmp    0x24(%eax),%esi
    2021:	72 da                	jb     1ffd <ext3_count_free_inodes+0xb>
    2023:	89 f8                	mov    %edi,%eax
    2025:	5b                   	pop    %ebx
    2026:	5e                   	pop    %esi
    2027:	5f                   	pop    %edi
    2028:	c3                   	ret    

00002029 <read_inode_bitmap>:
    2029:	57                   	push   %edi
    202a:	31 c9                	xor    %ecx,%ecx
    202c:	56                   	push   %esi
    202d:	89 d7                	mov    %edx,%edi
    202f:	53                   	push   %ebx
    2030:	89 c3                	mov    %eax,%ebx
    2032:	83 ec 04             	sub    $0x4,%esp
    2035:	e8 fc ff ff ff       	call   2036 <read_inode_bitmap+0xd>
			2036: R_386_PC32	ext3_get_group_desc
    203a:	89 c6                	mov    %eax,%esi
    203c:	31 c0                	xor    %eax,%eax
    203e:	85 f6                	test   %esi,%esi
    2040:	74 36                	je     2078 <read_inode_bitmap+0x4f>
    2042:	8b 56 04             	mov    0x4(%esi),%edx
    2045:	31 c9                	xor    %ecx,%ecx
    2047:	8b 83 94 00 00 00    	mov    0x94(%ebx),%eax
    204d:	ff 73 0c             	pushl  0xc(%ebx)
    2050:	e8 fc ff ff ff       	call   2051 <read_inode_bitmap+0x28>
			2051: R_386_PC32	__bread
    2055:	59                   	pop    %ecx
    2056:	85 c0                	test   %eax,%eax
    2058:	75 1e                	jne    2078 <read_inode_bitmap+0x4f>
    205a:	ff 76 04             	pushl  0x4(%esi)
    205d:	57                   	push   %edi
    205e:	68 ae 04 00 00       	push   $0x4ae
			205f: R_386_32	.rodata.str1.1
    2063:	68 ee 04 00 00       	push   $0x4ee
			2064: R_386_32	.rodata.str1.1
    2068:	53                   	push   %ebx
    2069:	89 44 24 14          	mov    %eax,0x14(%esp)
    206d:	e8 fc ff ff ff       	call   206e <read_inode_bitmap+0x45>
			206e: R_386_PC32	ext3_error
    2072:	83 c4 14             	add    $0x14,%esp
    2075:	8b 04 24             	mov    (%esp),%eax
    2078:	5a                   	pop    %edx
    2079:	5b                   	pop    %ebx
    207a:	5e                   	pop    %esi
    207b:	5f                   	pop    %edi
    207c:	c3                   	ret    

0000207d <vfs_dq_init>:
    207d:	8b 88 a4 00 00 00    	mov    0xa4(%eax),%ecx
    2083:	85 c9                	test   %ecx,%ecx
    2085:	75 04                	jne    208b <vfs_dq_init+0xe>
    2087:	0f 0b                	ud2a   
    2089:	eb fe                	jmp    2089 <vfs_dq_init+0xc>
    208b:	8b 91 a8 00 00 00    	mov    0xa8(%ecx),%edx
    2091:	f6 c2 01             	test   $0x1,%dl
    2094:	74 1e                	je     20b4 <vfs_dq_init+0x37>
    2096:	f6 c2 04             	test   $0x4,%dl
    2099:	74 07                	je     20a2 <vfs_dq_init+0x25>
    209b:	eb 17                	jmp    20b4 <vfs_dq_init+0x37>
    209d:	80 e2 20             	and    $0x20,%dl
    20a0:	75 17                	jne    20b9 <vfs_dq_init+0x3c>
    20a2:	f6 80 48 01 00 00 20 	testb  $0x20,0x148(%eax)
    20a9:	75 0e                	jne    20b9 <vfs_dq_init+0x3c>
    20ab:	8b 49 24             	mov    0x24(%ecx),%ecx
    20ae:	83 ca ff             	or     $0xffffffff,%edx
    20b1:	ff 11                	call   *(%ecx)
    20b3:	c3                   	ret    
    20b4:	f6 c2 08             	test   $0x8,%dl
    20b7:	75 e4                	jne    209d <vfs_dq_init+0x20>
    20b9:	c3                   	ret    

000020ba <ext3_orphan_get>:
    20ba:	55                   	push   %ebp
    20bb:	57                   	push   %edi
    20bc:	89 d7                	mov    %edx,%edi
    20be:	56                   	push   %esi
    20bf:	89 c6                	mov    %eax,%esi
    20c1:	53                   	push   %ebx
    20c2:	83 ec 0c             	sub    $0xc,%esp
    20c5:	8b 88 84 01 00 00    	mov    0x184(%eax),%ecx
    20cb:	8b 41 34             	mov    0x34(%ecx),%eax
    20ce:	8b 00                	mov    (%eax),%eax
    20d0:	39 c2                	cmp    %eax,%edx
    20d2:	89 44 24 04          	mov    %eax,0x4(%esp)
    20d6:	76 08                	jbe    20e0 <ext3_orphan_get+0x26>
    20d8:	52                   	push   %edx
    20d9:	68 19 05 00 00       	push   $0x519
			20da: R_386_32	.rodata.str1.1
    20de:	eb 21                	jmp    2101 <ext3_orphan_get+0x47>
    20e0:	8d 42 ff             	lea    -0x1(%edx),%eax
    20e3:	31 d2                	xor    %edx,%edx
    20e5:	f7 71 14             	divl   0x14(%ecx)
    20e8:	89 54 24 08          	mov    %edx,0x8(%esp)
    20ec:	89 c2                	mov    %eax,%edx
    20ee:	89 f0                	mov    %esi,%eax
    20f0:	e8 34 ff ff ff       	call   2029 <read_inode_bitmap>
    20f5:	85 c0                	test   %eax,%eax
    20f7:	89 c3                	mov    %eax,%ebx
    20f9:	75 21                	jne    211c <ext3_orphan_get+0x62>
    20fb:	57                   	push   %edi
    20fc:	68 3e 05 00 00       	push   $0x53e
			20fd: R_386_32	.rodata.str1.1
    2101:	68 cc 01 00 00       	push   $0x1cc
			2102: R_386_32	.rodata
    2106:	56                   	push   %esi
    2107:	e8 fc ff ff ff       	call   2108 <ext3_orphan_get+0x4e>
			2108: R_386_PC32	ext3_warning
    210c:	c7 44 24 10 fb ff ff 	movl   $0xfffffffb,0x10(%esp)
    2113:	ff 
    2114:	83 c4 10             	add    $0x10,%esp
    2117:	e9 ff 00 00 00       	jmp    221b <ext3_orphan_get+0x161>
    211c:	8b 40 18             	mov    0x18(%eax),%eax
    211f:	8b 54 24 08          	mov    0x8(%esp),%edx
    2123:	0f a3 10             	bt     %edx,(%eax)
    2126:	19 c0                	sbb    %eax,%eax
    2128:	85 c0                	test   %eax,%eax
    212a:	75 09                	jne    2135 <ext3_orphan_get+0x7b>
    212c:	c7 04 24 fb ff ff ff 	movl   $0xfffffffb,(%esp)
    2133:	eb 39                	jmp    216e <ext3_orphan_get+0xb4>
    2135:	89 fa                	mov    %edi,%edx
    2137:	89 f0                	mov    %esi,%eax
    2139:	e8 fc ff ff ff       	call   213a <ext3_orphan_get+0x80>
			213a: R_386_PC32	ext3_iget
    213e:	3d 00 f0 ff ff       	cmp    $0xfffff000,%eax
    2143:	89 c5                	mov    %eax,%ebp
    2145:	77 24                	ja     216b <ext3_orphan_get+0xb1>
    2147:	83 78 28 00          	cmpl   $0x0,0x28(%eax)
    214b:	74 09                	je     2156 <ext3_orphan_get+0x9c>
    214d:	e8 fc ff ff ff       	call   214e <ext3_orphan_get+0x94>
			214e: R_386_PC32	ext3_can_truncate
    2152:	85 c0                	test   %eax,%eax
    2154:	74 1c                	je     2172 <ext3_orphan_get+0xb8>
    2156:	8b 44 24 04          	mov    0x4(%esp),%eax
    215a:	39 45 ac             	cmp    %eax,-0x54(%ebp)
    215d:	77 13                	ja     2172 <ext3_orphan_get+0xb8>
    215f:	89 d8                	mov    %ebx,%eax
    2161:	e8 fc ff ff ff       	call   2162 <ext3_orphan_get+0xa8>
			2162: R_386_PC32	__brelse
    2166:	e9 b3 00 00 00       	jmp    221e <ext3_orphan_get+0x164>
    216b:	89 04 24             	mov    %eax,(%esp)
    216e:	31 ed                	xor    %ebp,%ebp
    2170:	eb 07                	jmp    2179 <ext3_orphan_get+0xbf>
    2172:	c7 04 24 fb ff ff ff 	movl   $0xfffffffb,(%esp)
    2179:	57                   	push   %edi
    217a:	68 60 05 00 00       	push   $0x560
			217b: R_386_32	.rodata.str1.1
    217f:	68 cc 01 00 00       	push   $0x1cc
			2180: R_386_32	.rodata
    2184:	56                   	push   %esi
    2185:	e8 fc ff ff ff       	call   2186 <ext3_orphan_get+0xcc>
			2186: R_386_PC32	ext3_warning
    218a:	8b 43 18             	mov    0x18(%ebx),%eax
    218d:	8b 54 24 18          	mov    0x18(%esp),%edx
    2191:	0f a3 10             	bt     %edx,(%eax)
    2194:	19 c0                	sbb    %eax,%eax
    2196:	50                   	push   %eax
    2197:	ff 73 10             	pushl  0x10(%ebx)
    219a:	ff 73 0c             	pushl  0xc(%ebx)
    219d:	52                   	push   %edx
    219e:	68 87 05 00 00       	push   $0x587
			219f: R_386_32	.rodata.str1.1
    21a3:	e8 fc ff ff ff       	call   21a4 <ext3_orphan_get+0xea>
			21a4: R_386_PC32	printk
    21a8:	83 c4 24             	add    $0x24,%esp
    21ab:	55                   	push   %ebp
    21ac:	68 b2 05 00 00       	push   $0x5b2
			21ad: R_386_32	.rodata.str1.1
    21b1:	e8 fc ff ff ff       	call   21b2 <ext3_orphan_get+0xf8>
			21b2: R_386_PC32	printk
    21b6:	85 ed                	test   %ebp,%ebp
    21b8:	5e                   	pop    %esi
    21b9:	5f                   	pop    %edi
    21ba:	74 58                	je     2214 <ext3_orphan_get+0x15a>
    21bc:	89 e8                	mov    %ebp,%eax
    21be:	e8 fc ff ff ff       	call   21bf <ext3_orphan_get+0x105>
			21bf: R_386_PC32	is_bad_inode
    21c3:	50                   	push   %eax
    21c4:	68 bf 05 00 00       	push   $0x5bf
			21c5: R_386_32	.rodata.str1.1
    21c9:	e8 fc ff ff ff       	call   21ca <ext3_orphan_get+0x110>
			21ca: R_386_PC32	printk
    21ce:	ff 75 ac             	pushl  -0x54(%ebp)
    21d1:	68 da 05 00 00       	push   $0x5da
			21d2: R_386_32	.rodata.str1.1
    21d6:	e8 fc ff ff ff       	call   21d7 <ext3_orphan_get+0x11d>
			21d7: R_386_PC32	printk
    21db:	ff 74 24 14          	pushl  0x14(%esp)
    21df:	68 f4 05 00 00       	push   $0x5f4
			21e0: R_386_32	.rodata.str1.1
    21e4:	e8 fc ff ff ff       	call   21e5 <ext3_orphan_get+0x12b>
			21e5: R_386_PC32	printk
    21e9:	ff 75 28             	pushl  0x28(%ebp)
    21ec:	68 04 06 00 00       	push   $0x604
			21ed: R_386_32	.rodata.str1.1
    21f1:	e8 fc ff ff ff       	call   21f2 <ext3_orphan_get+0x138>
			21f2: R_386_PC32	printk
    21f6:	83 c4 20             	add    $0x20,%esp
    21f9:	83 7d 28 00          	cmpl   $0x0,0x28(%ebp)
    21fd:	75 0e                	jne    220d <ext3_orphan_get+0x153>
    21ff:	c7 45 64 00 00 00 00 	movl   $0x0,0x64(%ebp)
    2206:	c7 45 68 00 00 00 00 	movl   $0x0,0x68(%ebp)
    220d:	89 e8                	mov    %ebp,%eax
    220f:	e8 fc ff ff ff       	call   2210 <ext3_orphan_get+0x156>
			2210: R_386_PC32	iput
    2214:	89 d8                	mov    %ebx,%eax
    2216:	e8 fc ff ff ff       	call   2217 <ext3_orphan_get+0x15d>
			2217: R_386_PC32	__brelse
    221b:	8b 2c 24             	mov    (%esp),%ebp
    221e:	83 c4 0c             	add    $0xc,%esp
    2221:	89 e8                	mov    %ebp,%eax
    2223:	5b                   	pop    %ebx
    2224:	5e                   	pop    %esi
    2225:	5f                   	pop    %edi
    2226:	5d                   	pop    %ebp
    2227:	c3                   	ret    

00002228 <ext3_new_inode>:
    2228:	55                   	push   %ebp
    2229:	57                   	push   %edi
    222a:	56                   	push   %esi
    222b:	53                   	push   %ebx
    222c:	83 ec 48             	sub    $0x48,%esp
    222f:	85 d2                	test   %edx,%edx
    2231:	89 44 24 20          	mov    %eax,0x20(%esp)
    2235:	89 54 24 1c          	mov    %edx,0x1c(%esp)
    2239:	89 4c 24 28          	mov    %ecx,0x28(%esp)
    223d:	0f 84 c2 08 00 00    	je     2b05 <ext3_new_inode+0x8dd>
    2243:	83 7a 28 00          	cmpl   $0x0,0x28(%edx)
    2247:	0f 84 b8 08 00 00    	je     2b05 <ext3_new_inode+0x8dd>
    224d:	8b 82 a4 00 00 00    	mov    0xa4(%edx),%eax
    2253:	bf f4 ff ff ff       	mov    $0xfffffff4,%edi
    2258:	89 44 24 14          	mov    %eax,0x14(%esp)
    225c:	e8 fc ff ff ff       	call   225d <ext3_new_inode+0x35>
			225d: R_386_PC32	new_inode
    2261:	85 c0                	test   %eax,%eax
    2263:	89 c6                	mov    %eax,%esi
    2265:	0f 84 9d 08 00 00    	je     2b08 <ext3_new_inode+0x8e0>
    226b:	8b 54 24 14          	mov    0x14(%esp),%edx
    226f:	8b 5c 24 28          	mov    0x28(%esp),%ebx
    2273:	8b aa 84 01 00 00    	mov    0x184(%edx),%ebp
    2279:	81 e3 00 f0 00 00    	and    $0xf000,%ebx
    227f:	81 fb 00 40 00 00    	cmp    $0x4000,%ebx
    2285:	8b 4d 34             	mov    0x34(%ebp),%ecx
    2288:	89 5c 24 2c          	mov    %ebx,0x2c(%esp)
    228c:	89 4c 24 3c          	mov    %ecx,0x3c(%esp)
    2290:	0f 85 d1 02 00 00    	jne    2567 <ext3_new_inode+0x33f>
    2296:	8b 45 24             	mov    0x24(%ebp),%eax
    2299:	f6 45 3c 02          	testb  $0x2,0x3c(%ebp)
    229d:	89 44 24 0c          	mov    %eax,0xc(%esp)
    22a1:	74 7f                	je     2322 <ext3_new_inode+0xfa>
    22a3:	8b 95 9c 00 00 00    	mov    0x9c(%ebp),%edx
    22a9:	8b 8d a0 00 00 00    	mov    0xa0(%ebp),%ecx
    22af:	85 c9                	test   %ecx,%ecx
    22b1:	79 05                	jns    22b8 <ext3_new_inode+0x90>
    22b3:	ba 01 00 00 00       	mov    $0x1,%edx
    22b8:	89 d0                	mov    %edx,%eax
    22ba:	31 d2                	xor    %edx,%edx
    22bc:	f7 74 24 0c          	divl   0xc(%esp)
    22c0:	83 cb ff             	or     $0xffffffff,%ebx
    22c3:	c7 44 24 10 00 00 00 	movl   $0x0,0x10(%esp)
    22ca:	00 
    22cb:	31 ff                	xor    %edi,%edi
    22cd:	89 44 24 18          	mov    %eax,0x18(%esp)
    22d1:	eb 40                	jmp    2313 <ext3_new_inode+0xeb>
    22d3:	8b 54 24 10          	mov    0x10(%esp),%edx
    22d7:	31 c9                	xor    %ecx,%ecx
    22d9:	8b 44 24 14          	mov    0x14(%esp),%eax
    22dd:	e8 fc ff ff ff       	call   22de <ext3_new_inode+0xb6>
			22de: R_386_PC32	ext3_get_group_desc
    22e2:	85 c0                	test   %eax,%eax
    22e4:	74 1f                	je     2305 <ext3_new_inode+0xdd>
    22e6:	66 8b 50 0e          	mov    0xe(%eax),%dx
    22ea:	66 85 d2             	test   %dx,%dx
    22ed:	74 16                	je     2305 <ext3_new_inode+0xdd>
    22ef:	0f b7 d2             	movzwl %dx,%edx
    22f2:	3b 54 24 18          	cmp    0x18(%esp),%edx
    22f6:	72 0d                	jb     2305 <ext3_new_inode+0xdd>
    22f8:	85 ff                	test   %edi,%edi
    22fa:	74 0d                	je     2309 <ext3_new_inode+0xe1>
    22fc:	8b 50 0c             	mov    0xc(%eax),%edx
    22ff:	66 3b 57 0c          	cmp    0xc(%edi),%dx
    2303:	77 04                	ja     2309 <ext3_new_inode+0xe1>
    2305:	89 f8                	mov    %edi,%eax
    2307:	eb 04                	jmp    230d <ext3_new_inode+0xe5>
    2309:	8b 5c 24 10          	mov    0x10(%esp),%ebx
    230d:	ff 44 24 10          	incl   0x10(%esp)
    2311:	89 c7                	mov    %eax,%edi
    2313:	8b 54 24 0c          	mov    0xc(%esp),%edx
    2317:	39 54 24 10          	cmp    %edx,0x10(%esp)
    231b:	7c b6                	jl     22d3 <ext3_new_inode+0xab>
    231d:	e9 08 03 00 00       	jmp    262a <ext3_new_inode+0x402>
    2322:	8b 4c 24 1c          	mov    0x1c(%esp),%ecx
    2326:	81 e9 9c 00 00 00    	sub    $0x9c,%ecx
    232c:	8b 79 4c             	mov    0x4c(%ecx),%edi
    232f:	89 7c 24 38          	mov    %edi,0x38(%esp)
    2333:	8b 5d 14             	mov    0x14(%ebp),%ebx
    2336:	c7 44 24 40 ff ff ff 	movl   $0xffffffff,0x40(%esp)
    233d:	ff 
    233e:	89 5c 24 10          	mov    %ebx,0x10(%esp)
    2342:	8b 85 9c 00 00 00    	mov    0x9c(%ebp),%eax
    2348:	8b 95 a0 00 00 00    	mov    0xa0(%ebp),%edx
    234e:	89 04 24             	mov    %eax,(%esp)
    2351:	89 54 24 04          	mov    %edx,0x4(%esp)
    2355:	85 d2                	test   %edx,%edx
    2357:	79 0f                	jns    2368 <ext3_new_inode+0x140>
    2359:	c7 04 24 01 00 00 00 	movl   $0x1,(%esp)
    2360:	c7 44 24 04 00 00 00 	movl   $0x0,0x4(%esp)
    2367:	00 
    2368:	8b 04 24             	mov    (%esp),%eax
    236b:	31 d2                	xor    %edx,%edx
    236d:	f7 74 24 0c          	divl   0xc(%esp)
    2371:	89 44 24 18          	mov    %eax,0x18(%esp)
    2375:	89 44 24 34          	mov    %eax,0x34(%esp)
    2379:	8b 85 84 00 00 00    	mov    0x84(%ebp),%eax
    237f:	8b 95 88 00 00 00    	mov    0x88(%ebp),%edx
    2385:	89 04 24             	mov    %eax,(%esp)
    2388:	89 54 24 04          	mov    %edx,0x4(%esp)
    238c:	85 d2                	test   %edx,%edx
    238e:	79 0f                	jns    239f <ext3_new_inode+0x177>
    2390:	c7 04 24 01 00 00 00 	movl   $0x1,(%esp)
    2397:	c7 44 24 04 00 00 00 	movl   $0x0,0x4(%esp)
    239e:	00 
    239f:	8b 04 24             	mov    (%esp),%eax
    23a2:	31 d2                	xor    %edx,%edx
    23a4:	f7 74 24 0c          	divl   0xc(%esp)
    23a8:	89 44 24 24          	mov    %eax,0x24(%esp)
    23ac:	8b 85 b4 00 00 00    	mov    0xb4(%ebp),%eax
    23b2:	8b 95 b8 00 00 00    	mov    0xb8(%ebp),%edx
    23b8:	89 04 24             	mov    %eax,(%esp)
    23bb:	89 54 24 04          	mov    %edx,0x4(%esp)
    23bf:	85 d2                	test   %edx,%edx
    23c1:	79 0f                	jns    23d2 <ext3_new_inode+0x1aa>
    23c3:	c7 04 24 01 00 00 00 	movl   $0x1,(%esp)
    23ca:	c7 44 24 04 00 00 00 	movl   $0x0,0x4(%esp)
    23d1:	00 
    23d2:	8b 54 24 14          	mov    0x14(%esp),%edx
    23d6:	8b 5c 24 1c          	mov    0x1c(%esp),%ebx
    23da:	8b 42 38             	mov    0x38(%edx),%eax
    23dd:	3b 58 10             	cmp    0x10(%eax),%ebx
    23e0:	74 0a                	je     23ec <ext3_new_inode+0x1c4>
    23e2:	f6 41 3e 02          	testb  $0x2,0x3e(%ecx)
    23e6:	0f 84 8e 00 00 00    	je     247a <ext3_new_inode+0x252>
    23ec:	8d 44 24 40          	lea    0x40(%esp),%eax
    23f0:	ba 04 00 00 00       	mov    $0x4,%edx
    23f5:	e8 fc ff ff ff       	call   23f6 <ext3_new_inode+0x1ce>
			23f6: R_386_PC32	get_random_bytes
    23fa:	31 d2                	xor    %edx,%edx
    23fc:	83 cb ff             	or     $0xffffffff,%ebx
    23ff:	31 ff                	xor    %edi,%edi
    2401:	8b 44 24 40          	mov    0x40(%esp),%eax
    2405:	f7 74 24 0c          	divl   0xc(%esp)
    2409:	89 54 24 30          	mov    %edx,0x30(%esp)
    240d:	89 54 24 38          	mov    %edx,0x38(%esp)
    2411:	eb 54                	jmp    2467 <ext3_new_inode+0x23f>
    2413:	8b 4c 24 30          	mov    0x30(%esp),%ecx
    2417:	8d 04 0f             	lea    (%edi,%ecx,1),%eax
    241a:	31 c9                	xor    %ecx,%ecx
    241c:	99                   	cltd   
    241d:	f7 7c 24 0c          	idivl  0xc(%esp)
    2421:	8b 44 24 14          	mov    0x14(%esp),%eax
    2425:	89 54 24 40          	mov    %edx,0x40(%esp)
    2429:	e8 fc ff ff ff       	call   242a <ext3_new_inode+0x202>
			242a: R_386_PC32	ext3_get_group_desc
    242e:	85 c0                	test   %eax,%eax
    2430:	74 2c                	je     245e <ext3_new_inode+0x236>
    2432:	66 8b 48 0e          	mov    0xe(%eax),%cx
    2436:	66 85 c9             	test   %cx,%cx
    2439:	74 23                	je     245e <ext3_new_inode+0x236>
    243b:	0f b7 50 10          	movzwl 0x10(%eax),%edx
    243f:	3b 54 24 10          	cmp    0x10(%esp),%edx
    2443:	7d 19                	jge    245e <ext3_new_inode+0x236>
    2445:	0f b7 c9             	movzwl %cx,%ecx
    2448:	3b 4c 24 18          	cmp    0x18(%esp),%ecx
    244c:	72 10                	jb     245e <ext3_new_inode+0x236>
    244e:	0f b7 40 0c          	movzwl 0xc(%eax),%eax
    2452:	3b 44 24 24          	cmp    0x24(%esp),%eax
    2456:	72 06                	jb     245e <ext3_new_inode+0x236>
    2458:	8b 5c 24 40          	mov    0x40(%esp),%ebx
    245c:	eb 04                	jmp    2462 <ext3_new_inode+0x23a>
    245e:	8b 54 24 10          	mov    0x10(%esp),%edx
    2462:	47                   	inc    %edi
    2463:	89 54 24 10          	mov    %edx,0x10(%esp)
    2467:	3b 7c 24 0c          	cmp    0xc(%esp),%edi
    246b:	7c a6                	jl     2413 <ext3_new_inode+0x1eb>
    246d:	85 db                	test   %ebx,%ebx
    246f:	0f 89 b5 01 00 00    	jns    262a <ext3_new_inode+0x402>
    2475:	e9 9a 00 00 00       	jmp    2514 <ext3_new_inode+0x2ec>
    247a:	8b 04 24             	mov    (%esp),%eax
    247d:	31 d2                	xor    %edx,%edx
    247f:	b9 10 00 00 00       	mov    $0x10,%ecx
    2484:	f7 74 24 0c          	divl   0xc(%esp)
    2488:	89 c3                	mov    %eax,%ebx
    248a:	8b 44 24 10          	mov    0x10(%esp),%eax
    248e:	99                   	cltd   
    248f:	f7 f9                	idiv   %ecx
    2491:	8d 0c 03             	lea    (%ebx,%eax,1),%ecx
    2494:	8b 44 24 10          	mov    0x10(%esp),%eax
    2498:	89 4c 24 30          	mov    %ecx,0x30(%esp)
    249c:	b9 04 00 00 00       	mov    $0x4,%ecx
    24a1:	8b 5c 24 24          	mov    0x24(%esp),%ebx
    24a5:	99                   	cltd   
    24a6:	f7 f9                	idiv   %ecx
    24a8:	8b 54 24 18          	mov    0x18(%esp),%edx
    24ac:	8b 4c 24 14          	mov    0x14(%esp),%ecx
    24b0:	29 c2                	sub    %eax,%edx
    24b2:	89 54 24 18          	mov    %edx,0x18(%esp)
    24b6:	8b 81 84 01 00 00    	mov    0x184(%ecx),%eax
    24bc:	8b 40 10             	mov    0x10(%eax),%eax
    24bf:	c1 e8 02             	shr    $0x2,%eax
    24c2:	29 c3                	sub    %eax,%ebx
    24c4:	89 5c 24 24          	mov    %ebx,0x24(%esp)
    24c8:	31 db                	xor    %ebx,%ebx
    24ca:	eb 42                	jmp    250e <ext3_new_inode+0x2e6>
    24cc:	8d 04 3b             	lea    (%ebx,%edi,1),%eax
    24cf:	31 c9                	xor    %ecx,%ecx
    24d1:	99                   	cltd   
    24d2:	f7 7c 24 0c          	idivl  0xc(%esp)
    24d6:	8b 44 24 14          	mov    0x14(%esp),%eax
    24da:	89 54 24 40          	mov    %edx,0x40(%esp)
    24de:	e8 fc ff ff ff       	call   24df <ext3_new_inode+0x2b7>
			24df: R_386_PC32	ext3_get_group_desc
    24e3:	85 c0                	test   %eax,%eax
    24e5:	74 26                	je     250d <ext3_new_inode+0x2e5>
    24e7:	66 8b 50 0e          	mov    0xe(%eax),%dx
    24eb:	66 85 d2             	test   %dx,%dx
    24ee:	74 1d                	je     250d <ext3_new_inode+0x2e5>
    24f0:	0f b7 48 10          	movzwl 0x10(%eax),%ecx
    24f4:	3b 4c 24 30          	cmp    0x30(%esp),%ecx
    24f8:	7d 13                	jge    250d <ext3_new_inode+0x2e5>
    24fa:	0f b7 d2             	movzwl %dx,%edx
    24fd:	3b 54 24 18          	cmp    0x18(%esp),%edx
    2501:	7c 0a                	jl     250d <ext3_new_inode+0x2e5>
    2503:	0f b7 40 0c          	movzwl 0xc(%eax),%eax
    2507:	3b 44 24 24          	cmp    0x24(%esp),%eax
    250b:	7d 3e                	jge    254b <ext3_new_inode+0x323>
    250d:	43                   	inc    %ebx
    250e:	3b 5c 24 0c          	cmp    0xc(%esp),%ebx
    2512:	7c b8                	jl     24cc <ext3_new_inode+0x2a4>
    2514:	8b 7c 24 34          	mov    0x34(%esp),%edi
    2518:	31 db                	xor    %ebx,%ebx
    251a:	eb 39                	jmp    2555 <ext3_new_inode+0x32d>
    251c:	8b 54 24 38          	mov    0x38(%esp),%edx
    2520:	31 c9                	xor    %ecx,%ecx
    2522:	8d 04 13             	lea    (%ebx,%edx,1),%eax
    2525:	99                   	cltd   
    2526:	f7 7c 24 0c          	idivl  0xc(%esp)
    252a:	8b 44 24 14          	mov    0x14(%esp),%eax
    252e:	89 54 24 40          	mov    %edx,0x40(%esp)
    2532:	e8 fc ff ff ff       	call   2533 <ext3_new_inode+0x30b>
			2533: R_386_PC32	ext3_get_group_desc
    2537:	85 c0                	test   %eax,%eax
    2539:	74 19                	je     2554 <ext3_new_inode+0x32c>
    253b:	66 8b 40 0e          	mov    0xe(%eax),%ax
    253f:	66 85 c0             	test   %ax,%ax
    2542:	74 10                	je     2554 <ext3_new_inode+0x32c>
    2544:	0f b7 c0             	movzwl %ax,%eax
    2547:	39 f8                	cmp    %edi,%eax
    2549:	72 09                	jb     2554 <ext3_new_inode+0x32c>
    254b:	8b 5c 24 40          	mov    0x40(%esp),%ebx
    254f:	e9 d6 00 00 00       	jmp    262a <ext3_new_inode+0x402>
    2554:	43                   	inc    %ebx
    2555:	3b 5c 24 0c          	cmp    0xc(%esp),%ebx
    2559:	7c c1                	jl     251c <ext3_new_inode+0x2f4>
    255b:	85 ff                	test   %edi,%edi
    255d:	0f 84 45 05 00 00    	je     2aa8 <ext3_new_inode+0x880>
    2563:	31 ff                	xor    %edi,%edi
    2565:	eb b1                	jmp    2518 <ext3_new_inode+0x2f0>
    2567:	8b 4c 24 1c          	mov    0x1c(%esp),%ecx
    256b:	8b 45 24             	mov    0x24(%ebp),%eax
    256e:	8b 79 b0             	mov    -0x50(%ecx),%edi
    2571:	31 c9                	xor    %ecx,%ecx
    2573:	89 44 24 0c          	mov    %eax,0xc(%esp)
    2577:	8b 44 24 14          	mov    0x14(%esp),%eax
    257b:	89 fa                	mov    %edi,%edx
    257d:	89 fb                	mov    %edi,%ebx
    257f:	e8 fc ff ff ff       	call   2580 <ext3_new_inode+0x358>
			2580: R_386_PC32	ext3_get_group_desc
    2584:	85 c0                	test   %eax,%eax
    2586:	74 12                	je     259a <ext3_new_inode+0x372>
    2588:	66 83 78 0e 00       	cmpw   $0x0,0xe(%eax)
    258d:	74 0b                	je     259a <ext3_new_inode+0x372>
    258f:	66 83 78 0c 00       	cmpw   $0x0,0xc(%eax)
    2594:	0f 85 90 00 00 00    	jne    262a <ext3_new_inode+0x402>
    259a:	8b 54 24 1c          	mov    0x1c(%esp),%edx
    259e:	89 f8                	mov    %edi,%eax
    25a0:	03 42 20             	add    0x20(%edx),%eax
    25a3:	31 d2                	xor    %edx,%edx
    25a5:	f7 74 24 0c          	divl   0xc(%esp)
    25a9:	c7 44 24 10 01 00 00 	movl   $0x1,0x10(%esp)
    25b0:	00 
    25b1:	89 d7                	mov    %edx,%edi
    25b3:	eb 34                	jmp    25e9 <ext3_new_inode+0x3c1>
    25b5:	03 7c 24 10          	add    0x10(%esp),%edi
    25b9:	89 f8                	mov    %edi,%eax
    25bb:	2b 44 24 0c          	sub    0xc(%esp),%eax
    25bf:	3b 7c 24 0c          	cmp    0xc(%esp),%edi
    25c3:	0f 4d f8             	cmovge %eax,%edi
    25c6:	8b 44 24 14          	mov    0x14(%esp),%eax
    25ca:	31 c9                	xor    %ecx,%ecx
    25cc:	89 fa                	mov    %edi,%edx
    25ce:	e8 fc ff ff ff       	call   25cf <ext3_new_inode+0x3a7>
			25cf: R_386_PC32	ext3_get_group_desc
    25d3:	85 c0                	test   %eax,%eax
    25d5:	74 0e                	je     25e5 <ext3_new_inode+0x3bd>
    25d7:	66 83 78 0e 00       	cmpw   $0x0,0xe(%eax)
    25dc:	74 07                	je     25e5 <ext3_new_inode+0x3bd>
    25de:	66 83 78 0c 00       	cmpw   $0x0,0xc(%eax)
    25e3:	75 43                	jne    2628 <ext3_new_inode+0x400>
    25e5:	d1 64 24 10          	shll   0x10(%esp)
    25e9:	8b 4c 24 0c          	mov    0xc(%esp),%ecx
    25ed:	39 4c 24 10          	cmp    %ecx,0x10(%esp)
    25f1:	7c c2                	jl     25b5 <ext3_new_inode+0x38d>
    25f3:	31 ff                	xor    %edi,%edi
    25f5:	eb 26                	jmp    261d <ext3_new_inode+0x3f5>
    25f7:	43                   	inc    %ebx
    25f8:	b8 00 00 00 00       	mov    $0x0,%eax
    25fd:	3b 5c 24 0c          	cmp    0xc(%esp),%ebx
    2601:	0f 4d d8             	cmovge %eax,%ebx
    2604:	8b 44 24 14          	mov    0x14(%esp),%eax
    2608:	31 c9                	xor    %ecx,%ecx
    260a:	89 da                	mov    %ebx,%edx
    260c:	e8 fc ff ff ff       	call   260d <ext3_new_inode+0x3e5>
			260d: R_386_PC32	ext3_get_group_desc
    2611:	85 c0                	test   %eax,%eax
    2613:	74 07                	je     261c <ext3_new_inode+0x3f4>
    2615:	66 83 78 0e 00       	cmpw   $0x0,0xe(%eax)
    261a:	75 0e                	jne    262a <ext3_new_inode+0x402>
    261c:	47                   	inc    %edi
    261d:	3b 7c 24 0c          	cmp    0xc(%esp),%edi
    2621:	7c d4                	jl     25f7 <ext3_new_inode+0x3cf>
    2623:	e9 80 04 00 00       	jmp    2aa8 <ext3_new_inode+0x880>
    2628:	89 fb                	mov    %edi,%ebx
    262a:	83 fb ff             	cmp    $0xffffffff,%ebx
    262d:	0f 84 75 04 00 00    	je     2aa8 <ext3_new_inode+0x880>
    2633:	89 f7                	mov    %esi,%edi
    2635:	31 f6                	xor    %esi,%esi
    2637:	c7 44 24 24 00 00 00 	movl   $0x0,0x24(%esp)
    263e:	00 
    263f:	c7 44 24 0c 00 00 00 	movl   $0x0,0xc(%esp)
    2646:	00 
    2647:	e9 e9 00 00 00       	jmp    2735 <ext3_new_inode+0x50d>
    264c:	8b 44 24 14          	mov    0x14(%esp),%eax
    2650:	8d 4c 24 44          	lea    0x44(%esp),%ecx
    2654:	89 da                	mov    %ebx,%edx
    2656:	e8 fc ff ff ff       	call   2657 <ext3_new_inode+0x42f>
			2657: R_386_PC32	ext3_get_group_desc
    265b:	85 c0                	test   %eax,%eax
    265d:	89 44 24 18          	mov    %eax,0x18(%esp)
    2661:	0f 84 1a 04 00 00    	je     2a81 <ext3_new_inode+0x859>
    2667:	85 f6                	test   %esi,%esi
    2669:	74 07                	je     2672 <ext3_new_inode+0x44a>
    266b:	89 f0                	mov    %esi,%eax
    266d:	e8 fc ff ff ff       	call   266e <ext3_new_inode+0x446>
			266e: R_386_PC32	__brelse
    2672:	8b 44 24 14          	mov    0x14(%esp),%eax
    2676:	89 da                	mov    %ebx,%edx
    2678:	e8 ac f9 ff ff       	call   2029 <read_inode_bitmap>
    267d:	85 c0                	test   %eax,%eax
    267f:	89 c6                	mov    %eax,%esi
    2681:	0f 84 fa 03 00 00    	je     2a81 <ext3_new_inode+0x859>
    2687:	31 c9                	xor    %ecx,%ecx
    2689:	8b 54 24 14          	mov    0x14(%esp),%edx
    268d:	8b 82 84 01 00 00    	mov    0x184(%edx),%eax
    2693:	8b 50 14             	mov    0x14(%eax),%edx
    2696:	8b 46 18             	mov    0x18(%esi),%eax
    2699:	e8 fc ff ff ff       	call   269a <ext3_new_inode+0x472>
			269a: R_386_PC32	find_next_zero_bit
    269e:	8b 4c 24 14          	mov    0x14(%esp),%ecx
    26a2:	89 44 24 10          	mov    %eax,0x10(%esp)
    26a6:	8b 54 24 10          	mov    0x10(%esp),%edx
    26aa:	8b 81 84 01 00 00    	mov    0x184(%ecx),%eax
    26b0:	3b 50 14             	cmp    0x14(%eax),%edx
    26b3:	73 70                	jae    2725 <ext3_new_inode+0x4fd>
    26b5:	8b 54 24 20          	mov    0x20(%esp),%edx
    26b9:	89 f1                	mov    %esi,%ecx
    26bb:	b8 dc 01 00 00       	mov    $0x1dc,%eax
			26bc: R_386_32	.rodata
    26c0:	e8 fc ff ff ff       	call   26c1 <ext3_new_inode+0x499>
			26c1: R_386_PC32	__ext3_journal_get_write_access
    26c5:	85 c0                	test   %eax,%eax
    26c7:	0f 85 c1 03 00 00    	jne    2a8e <ext3_new_inode+0x866>
    26cd:	8b 46 18             	mov    0x18(%esi),%eax
    26d0:	8b 4c 24 10          	mov    0x10(%esp),%ecx
    26d4:	f0 0f ab 08          	lock bts %ecx,(%eax)
    26d8:	19 d2                	sbb    %edx,%edx
    26da:	85 d2                	test   %edx,%edx
    26dc:	75 24                	jne    2702 <ext3_new_inode+0x4da>
    26de:	89 74 24 0c          	mov    %esi,0xc(%esp)
    26e2:	8b 54 24 20          	mov    0x20(%esp),%edx
    26e6:	b8 dc 01 00 00       	mov    $0x1dc,%eax
			26e7: R_386_32	.rodata
    26eb:	8b 4c 24 0c          	mov    0xc(%esp),%ecx
    26ef:	89 fe                	mov    %edi,%esi
    26f1:	e8 fc ff ff ff       	call   26f2 <ext3_new_inode+0x4ca>
			26f2: R_386_PC32	__ext3_journal_dirty_metadata
    26f6:	85 c0                	test   %eax,%eax
    26f8:	89 c7                	mov    %eax,%edi
    26fa:	0f 85 96 03 00 00    	jne    2a96 <ext3_new_inode+0x86e>
    2700:	eb 50                	jmp    2752 <ext3_new_inode+0x52a>
    2702:	8b 44 24 20          	mov    0x20(%esp),%eax
    2706:	89 f2                	mov    %esi,%edx
    2708:	e8 fc ff ff ff       	call   2709 <ext3_new_inode+0x4e1>
			2709: R_386_PC32	journal_release_buffer
    270d:	8b 54 24 14          	mov    0x14(%esp),%edx
    2711:	8b 4c 24 10          	mov    0x10(%esp),%ecx
    2715:	8b 82 84 01 00 00    	mov    0x184(%edx),%eax
    271b:	41                   	inc    %ecx
    271c:	3b 48 14             	cmp    0x14(%eax),%ecx
    271f:	0f 82 64 ff ff ff    	jb     2689 <ext3_new_inode+0x461>
    2725:	43                   	inc    %ebx
    2726:	b9 00 00 00 00       	mov    $0x0,%ecx
    272b:	3b 5d 24             	cmp    0x24(%ebp),%ebx
    272e:	0f 44 d9             	cmove  %ecx,%ebx
    2731:	ff 44 24 24          	incl   0x24(%esp)
    2735:	8b 44 24 24          	mov    0x24(%esp),%eax
    2739:	3b 45 24             	cmp    0x24(%ebp),%eax
    273c:	0f 82 0a ff ff ff    	jb     264c <ext3_new_inode+0x424>
    2742:	89 74 24 0c          	mov    %esi,0xc(%esp)
    2746:	89 fe                	mov    %edi,%esi
    2748:	bf e4 ff ff ff       	mov    $0xffffffe4,%edi
    274d:	e9 63 03 00 00       	jmp    2ab5 <ext3_new_inode+0x88d>
    2752:	8b 4c 24 14          	mov    0x14(%esp),%ecx
    2756:	8b 91 84 01 00 00    	mov    0x184(%ecx),%edx
    275c:	8b 4c 24 10          	mov    0x10(%esp),%ecx
    2760:	8b 42 14             	mov    0x14(%edx),%eax
    2763:	0f af c3             	imul   %ebx,%eax
    2766:	8d 44 01 01          	lea    0x1(%ecx,%eax,1),%eax
    276a:	89 44 24 10          	mov    %eax,0x10(%esp)
    276e:	3b 42 5c             	cmp    0x5c(%edx),%eax
    2771:	72 08                	jb     277b <ext3_new_inode+0x553>
    2773:	8b 54 24 3c          	mov    0x3c(%esp),%edx
    2777:	3b 02                	cmp    (%edx),%eax
    2779:	76 25                	jbe    27a0 <ext3_new_inode+0x578>
    277b:	ff 74 24 10          	pushl  0x10(%esp)
    277f:	bf fb ff ff ff       	mov    $0xfffffffb,%edi
    2784:	53                   	push   %ebx
    2785:	68 13 06 00 00       	push   $0x613
			2786: R_386_32	.rodata.str1.1
    278a:	68 58 06 00 00       	push   $0x658
			278b: R_386_32	.rodata.str1.1
    278f:	ff 74 24 24          	pushl  0x24(%esp)
    2793:	e8 fc ff ff ff       	call   2794 <ext3_new_inode+0x56c>
			2794: R_386_PC32	ext3_error
    2798:	83 c4 14             	add    $0x14,%esp
    279b:	e9 f6 02 00 00       	jmp    2a96 <ext3_new_inode+0x86e>
    27a0:	8b 4c 24 44          	mov    0x44(%esp),%ecx
    27a4:	b8 dc 01 00 00       	mov    $0x1dc,%eax
			27a5: R_386_32	.rodata
    27a9:	8b 54 24 20          	mov    0x20(%esp),%edx
    27ad:	e8 fc ff ff ff       	call   27ae <ext3_new_inode+0x586>
			27ae: R_386_PC32	__ext3_journal_get_write_access
    27b2:	85 c0                	test   %eax,%eax
    27b4:	89 c7                	mov    %eax,%edi
    27b6:	0f 85 da 02 00 00    	jne    2a96 <ext3_new_inode+0x86e>
    27bc:	89 df                	mov    %ebx,%edi
    27be:	83 e7 7f             	and    $0x7f,%edi
    27c1:	89 f8                	mov    %edi,%eax
    27c3:	c1 e0 05             	shl    $0x5,%eax
    27c6:	03 85 c8 00 00 00    	add    0xc8(%ebp),%eax
    27cc:	e8 fc ff ff ff       	call   27cd <ext3_new_inode+0x5a5>
			27cd: R_386_PC32	_spin_lock
    27d1:	8b 4c 24 18          	mov    0x18(%esp),%ecx
    27d5:	66 ff 49 0e          	decw   0xe(%ecx)
    27d9:	81 7c 24 2c 00 40 00 	cmpl   $0x4000,0x2c(%esp)
    27e0:	00 
    27e1:	75 04                	jne    27e7 <ext3_new_inode+0x5bf>
    27e3:	66 ff 41 10          	incw   0x10(%ecx)
    27e7:	89 f8                	mov    %edi,%eax
    27e9:	c1 e0 05             	shl    $0x5,%eax
    27ec:	03 85 c8 00 00 00    	add    0xc8(%ebp),%eax
    27f2:	fe 00                	incb   (%eax)
    27f4:	8b 4c 24 44          	mov    0x44(%esp),%ecx
    27f8:	b8 dc 01 00 00       	mov    $0x1dc,%eax
			27f9: R_386_32	.rodata
    27fd:	8b 54 24 20          	mov    0x20(%esp),%edx
    2801:	e8 fc ff ff ff       	call   2802 <ext3_new_inode+0x5da>
			2802: R_386_PC32	__ext3_journal_dirty_metadata
    2806:	85 c0                	test   %eax,%eax
    2808:	89 c7                	mov    %eax,%edi
    280a:	0f 85 86 02 00 00    	jne    2a96 <ext3_new_inode+0x86e>
    2810:	ff 35 00 00 00 00    	pushl  0x0
			2812: R_386_32	percpu_counter_batch
    2816:	83 ca ff             	or     $0xffffffff,%edx
    2819:	89 d1                	mov    %edx,%ecx
    281b:	8d 85 98 00 00 00    	lea    0x98(%ebp),%eax
    2821:	e8 fc ff ff ff       	call   2822 <ext3_new_inode+0x5fa>
			2822: R_386_PC32	__percpu_counter_add
    2826:	5a                   	pop    %edx
    2827:	81 7c 24 2c 00 40 00 	cmpl   $0x4000,0x2c(%esp)
    282e:	00 
    282f:	75 19                	jne    284a <ext3_new_inode+0x622>
    2831:	ff 35 00 00 00 00    	pushl  0x0
			2833: R_386_32	percpu_counter_batch
    2837:	ba 01 00 00 00       	mov    $0x1,%edx
    283c:	8d 85 b0 00 00 00    	lea    0xb0(%ebp),%eax
    2842:	31 c9                	xor    %ecx,%ecx
    2844:	e8 fc ff ff ff       	call   2845 <ext3_new_inode+0x61d>
			2845: R_386_PC32	__percpu_counter_add
    2849:	58                   	pop    %eax
    284a:	64 a1 00 00 00 00    	mov    %fs:0x0,%eax
			284c: R_386_32	per_cpu__current_task
    2850:	8b 90 fc 01 00 00    	mov    0x1fc(%eax),%edx
    2856:	8b 52 1c             	mov    0x1c(%edx),%edx
    2859:	89 56 2c             	mov    %edx,0x2c(%esi)
    285c:	8b 4c 24 14          	mov    0x14(%esp),%ecx
    2860:	8b 91 84 01 00 00    	mov    0x184(%ecx),%edx
    2866:	f6 42 3c 04          	testb  $0x4,0x3c(%edx)
    286a:	74 09                	je     2875 <ext3_new_inode+0x64d>
    286c:	8b 54 24 1c          	mov    0x1c(%esp),%edx
    2870:	8b 42 30             	mov    0x30(%edx),%eax
    2873:	eb 33                	jmp    28a8 <ext3_new_inode+0x680>
    2875:	8b 4c 24 1c          	mov    0x1c(%esp),%ecx
    2879:	f6 41 73 04          	testb  $0x4,0x73(%ecx)
    287d:	74 20                	je     289f <ext3_new_inode+0x677>
    287f:	8b 41 30             	mov    0x30(%ecx),%eax
    2882:	89 46 30             	mov    %eax,0x30(%esi)
    2885:	8b 44 24 28          	mov    0x28(%esp),%eax
    2889:	80 cc 04             	or     $0x4,%ah
    288c:	81 7c 24 2c 00 40 00 	cmpl   $0x4000,0x2c(%esp)
    2893:	00 
    2894:	0f 45 44 24 28       	cmovne 0x28(%esp),%eax
    2899:	89 44 24 28          	mov    %eax,0x28(%esp)
    289d:	eb 0c                	jmp    28ab <ext3_new_inode+0x683>
    289f:	8b 80 fc 01 00 00    	mov    0x1fc(%eax),%eax
    28a5:	8b 40 20             	mov    0x20(%eax),%eax
    28a8:	89 46 30             	mov    %eax,0x30(%esi)
    28ab:	8b 54 24 28          	mov    0x28(%esp),%edx
    28af:	8d 86 64 ff ff ff    	lea    -0x9c(%esi),%eax
    28b5:	89 44 24 24          	mov    %eax,0x24(%esp)
    28b9:	66 89 54 24 18       	mov    %dx,0x18(%esp)
    28be:	66 89 56 72          	mov    %dx,0x72(%esi)
    28c2:	8b 44 24 10          	mov    0x10(%esp),%eax
    28c6:	c7 46 64 00 00 00 00 	movl   $0x0,0x64(%esi)
    28cd:	c7 46 68 00 00 00 00 	movl   $0x0,0x68(%esi)
    28d4:	89 46 20             	mov    %eax,0x20(%esi)
    28d7:	e8 fc ff ff ff       	call   28d8 <ext3_new_inode+0x6b0>
			28d8: R_386_PC32	get_seconds
    28dc:	c7 46 60 00 00 00 00 	movl   $0x0,0x60(%esi)
    28e3:	8b 4e 60             	mov    0x60(%esi),%ecx
    28e6:	89 4e 50             	mov    %ecx,0x50(%esi)
    28e9:	89 46 5c             	mov    %eax,0x5c(%esi)
    28ec:	8b 56 5c             	mov    0x5c(%esi),%edx
    28ef:	31 c0                	xor    %eax,%eax
    28f1:	89 4e 58             	mov    %ecx,0x58(%esi)
    28f4:	b9 0f 00 00 00       	mov    $0xf,%ecx
    28f9:	89 56 4c             	mov    %edx,0x4c(%esi)
    28fc:	89 56 54             	mov    %edx,0x54(%esi)
    28ff:	8b 7c 24 24          	mov    0x24(%esp),%edi
    2903:	f3 ab                	rep stos %eax,%es:(%edi)
    2905:	8b 4c 24 24          	mov    0x24(%esp),%ecx
    2909:	c7 41 58 00 00 00 00 	movl   $0x0,0x58(%ecx)
    2910:	c7 41 74 00 00 00 00 	movl   $0x0,0x74(%ecx)
    2917:	c7 41 78 00 00 00 00 	movl   $0x0,0x78(%ecx)
    291e:	8b 44 24 1c          	mov    0x1c(%esp),%eax
    2922:	8b 7c 24 18          	mov    0x18(%esp),%edi
    2926:	8b 48 a0             	mov    -0x60(%eax),%ecx
    2929:	81 e7 00 f0 00 00    	and    $0xf000,%edi
    292f:	89 c8                	mov    %ecx,%eax
    2931:	25 ff c6 01 00       	and    $0x1c6ff,%eax
    2936:	81 ff 00 40 00 00    	cmp    $0x4000,%edi
    293c:	74 16                	je     2954 <ext3_new_inode+0x72c>
    293e:	89 c8                	mov    %ecx,%eax
    2940:	81 e1 c0 00 00 00    	and    $0xc0,%ecx
    2946:	25 ff c6 00 00       	and    $0xc6ff,%eax
    294b:	81 ff 00 80 00 00    	cmp    $0x8000,%edi
    2951:	0f 45 c1             	cmovne %ecx,%eax
    2954:	8b 54 24 24          	mov    0x24(%esp),%edx
    2958:	89 42 3c             	mov    %eax,0x3c(%edx)
    295b:	89 f0                	mov    %esi,%eax
    295d:	c7 42 40 00 00 00 00 	movl   $0x0,0x40(%edx)
    2964:	c7 42 44 00 00 00 00 	movl   $0x0,0x44(%edx)
    296b:	c7 42 48 00 00 00 00 	movl   $0x0,0x48(%edx)
    2972:	c7 42 54 00 00 00 00 	movl   $0x0,0x54(%edx)
    2979:	89 5a 4c             	mov    %ebx,0x4c(%edx)
    297c:	e8 fc ff ff ff       	call   297d <ext3_new_inode+0x755>
			297d: R_386_PC32	ext3_set_inode_flags
    2981:	8b 86 a4 00 00 00    	mov    0xa4(%esi),%eax
    2987:	f6 40 30 90          	testb  $0x90,0x30(%eax)
    298b:	75 09                	jne    2996 <ext3_new_inode+0x76e>
    298d:	f6 86 48 01 00 00 41 	testb  $0x41,0x148(%esi)
    2994:	74 08                	je     299e <ext3_new_inode+0x776>
    2996:	8b 4c 24 20          	mov    0x20(%esp),%ecx
    299a:	80 49 10 01          	orb    $0x1,0x10(%ecx)
    299e:	89 f0                	mov    %esi,%eax
    29a0:	bb ea ff ff ff       	mov    $0xffffffea,%ebx
    29a5:	e8 fc ff ff ff       	call   29a6 <ext3_new_inode+0x77e>
			29a6: R_386_PC32	insert_inode_locked
    29aa:	85 c0                	test   %eax,%eax
    29ac:	0f 88 23 01 00 00    	js     2ad5 <ext3_new_inode+0x8ad>
    29b2:	8d 45 60             	lea    0x60(%ebp),%eax
    29b5:	e8 fc ff ff ff       	call   29b6 <ext3_new_inode+0x78e>
			29b6: R_386_PC32	_spin_lock
    29ba:	8b 45 64             	mov    0x64(%ebp),%eax
    29bd:	89 86 18 01 00 00    	mov    %eax,0x118(%esi)
    29c3:	40                   	inc    %eax
    29c4:	89 45 64             	mov    %eax,0x64(%ebp)
    29c7:	fe 45 60             	incb   0x60(%ebp)
    29ca:	8b 5c 24 24          	mov    0x24(%esp),%ebx
    29ce:	c7 43 50 02 00 00 00 	movl   $0x2,0x50(%ebx)
    29d5:	8b 86 a4 00 00 00    	mov    0xa4(%esi),%eax
    29db:	8b 80 84 01 00 00    	mov    0x184(%eax),%eax
    29e1:	81 78 58 80 00 00 00 	cmpl   $0x80,0x58(%eax)
    29e8:	0f 9f c0             	setg   %al
    29eb:	0f b6 c0             	movzbl %al,%eax
    29ee:	c1 e0 02             	shl    $0x2,%eax
    29f1:	66 89 43 7c          	mov    %ax,0x7c(%ebx)
    29f5:	8b 86 a4 00 00 00    	mov    0xa4(%esi),%eax
    29fb:	8b 80 a8 00 00 00    	mov    0xa8(%eax),%eax
    2a01:	a8 01                	test   $0x1,%al
    2a03:	0f 84 09 01 00 00    	je     2b12 <ext3_new_inode+0x8ea>
    2a09:	a8 04                	test   $0x4,%al
    2a0b:	74 0d                	je     2a1a <ext3_new_inode+0x7f2>
    2a0d:	e9 00 01 00 00       	jmp    2b12 <ext3_new_inode+0x8ea>
    2a12:	a8 20                	test   $0x20,%al
    2a14:	0f 85 00 01 00 00    	jne    2b1a <ext3_new_inode+0x8f2>
    2a1a:	89 f0                	mov    %esi,%eax
    2a1c:	e8 5c f6 ff ff       	call   207d <vfs_dq_init>
    2a21:	8b 86 a4 00 00 00    	mov    0xa4(%esi),%eax
    2a27:	31 c9                	xor    %ecx,%ecx
    2a29:	ba 01 00 00 00       	mov    $0x1,%edx
    2a2e:	8b 58 24             	mov    0x24(%eax),%ebx
    2a31:	89 f0                	mov    %esi,%eax
    2a33:	ff 53 0c             	call   *0xc(%ebx)
    2a36:	bb 86 ff ff ff       	mov    $0xffffff86,%ebx
    2a3b:	48                   	dec    %eax
    2a3c:	0f 85 d8 00 00 00    	jne    2b1a <ext3_new_inode+0x8f2>
    2a42:	e9 8e 00 00 00       	jmp    2ad5 <ext3_new_inode+0x8ad>
    2a47:	8b 4c 24 1c          	mov    0x1c(%esp),%ecx
    2a4b:	89 f2                	mov    %esi,%edx
    2a4d:	8b 44 24 20          	mov    0x20(%esp),%eax
    2a51:	e8 fc ff ff ff       	call   2a52 <ext3_new_inode+0x82a>
			2a52: R_386_PC32	ext3_init_security
    2a56:	85 c0                	test   %eax,%eax
    2a58:	89 c3                	mov    %eax,%ebx
    2a5a:	75 72                	jne    2ace <ext3_new_inode+0x8a6>
    2a5c:	8b 44 24 20          	mov    0x20(%esp),%eax
    2a60:	89 f2                	mov    %esi,%edx
    2a62:	89 f7                	mov    %esi,%edi
    2a64:	e8 fc ff ff ff       	call   2a65 <ext3_new_inode+0x83d>
			2a65: R_386_PC32	ext3_mark_inode_dirty
    2a69:	85 c0                	test   %eax,%eax
    2a6b:	89 c3                	mov    %eax,%ebx
    2a6d:	74 54                	je     2ac3 <ext3_new_inode+0x89b>
    2a6f:	89 c1                	mov    %eax,%ecx
    2a71:	8b 44 24 14          	mov    0x14(%esp),%eax
    2a75:	ba dc 01 00 00       	mov    $0x1dc,%edx
			2a76: R_386_32	.rodata
    2a7a:	e8 fc ff ff ff       	call   2a7b <ext3_new_inode+0x853>
			2a7b: R_386_PC32	__ext3_std_error
    2a7f:	eb 4d                	jmp    2ace <ext3_new_inode+0x8a6>
    2a81:	89 74 24 0c          	mov    %esi,0xc(%esp)
    2a85:	89 fe                	mov    %edi,%esi
    2a87:	bf fb ff ff ff       	mov    $0xfffffffb,%edi
    2a8c:	eb 08                	jmp    2a96 <ext3_new_inode+0x86e>
    2a8e:	89 74 24 0c          	mov    %esi,0xc(%esp)
    2a92:	89 fe                	mov    %edi,%esi
    2a94:	89 c7                	mov    %eax,%edi
    2a96:	8b 44 24 14          	mov    0x14(%esp),%eax
    2a9a:	89 f9                	mov    %edi,%ecx
    2a9c:	ba dc 01 00 00       	mov    $0x1dc,%edx
			2a9d: R_386_32	.rodata
    2aa1:	e8 fc ff ff ff       	call   2aa2 <ext3_new_inode+0x87a>
			2aa2: R_386_PC32	__ext3_std_error
    2aa6:	eb 0d                	jmp    2ab5 <ext3_new_inode+0x88d>
    2aa8:	bf e4 ff ff ff       	mov    $0xffffffe4,%edi
    2aad:	c7 44 24 0c 00 00 00 	movl   $0x0,0xc(%esp)
    2ab4:	00 
    2ab5:	89 f0                	mov    %esi,%eax
    2ab7:	e8 fc ff ff ff       	call   2ab8 <ext3_new_inode+0x890>
			2ab8: R_386_PC32	iput
    2abc:	83 7c 24 0c 00       	cmpl   $0x0,0xc(%esp)
    2ac1:	74 45                	je     2b08 <ext3_new_inode+0x8e0>
    2ac3:	8b 44 24 0c          	mov    0xc(%esp),%eax
    2ac7:	e8 fc ff ff ff       	call   2ac8 <ext3_new_inode+0x8a0>
			2ac8: R_386_PC32	__brelse
    2acc:	eb 3a                	jmp    2b08 <ext3_new_inode+0x8e0>
    2ace:	89 f0                	mov    %esi,%eax
    2ad0:	e8 b7 f4 ff ff       	call   1f8c <vfs_dq_free_inode>
    2ad5:	89 f0                	mov    %esi,%eax
    2ad7:	89 df                	mov    %ebx,%edi
    2ad9:	e8 fc ff ff ff       	call   2ada <ext3_new_inode+0x8b2>
			2ada: R_386_PC32	vfs_dq_drop
    2ade:	89 f0                	mov    %esi,%eax
    2ae0:	83 8e 48 01 00 00 20 	orl    $0x20,0x148(%esi)
    2ae7:	c7 46 28 00 00 00 00 	movl   $0x0,0x28(%esi)
    2aee:	e8 fc ff ff ff       	call   2aef <ext3_new_inode+0x8c7>
			2aef: R_386_PC32	unlock_new_inode
    2af3:	89 f0                	mov    %esi,%eax
    2af5:	e8 fc ff ff ff       	call   2af6 <ext3_new_inode+0x8ce>
			2af6: R_386_PC32	iput
    2afa:	8b 44 24 0c          	mov    0xc(%esp),%eax
    2afe:	e8 fc ff ff ff       	call   2aff <ext3_new_inode+0x8d7>
			2aff: R_386_PC32	__brelse
    2b03:	eb 03                	jmp    2b08 <ext3_new_inode+0x8e0>
    2b05:	83 cf ff             	or     $0xffffffff,%edi
    2b08:	83 c4 48             	add    $0x48,%esp
    2b0b:	89 f8                	mov    %edi,%eax
    2b0d:	5b                   	pop    %ebx
    2b0e:	5e                   	pop    %esi
    2b0f:	5f                   	pop    %edi
    2b10:	5d                   	pop    %ebp
    2b11:	c3                   	ret    
    2b12:	a8 08                	test   $0x8,%al
    2b14:	0f 85 f8 fe ff ff    	jne    2a12 <ext3_new_inode+0x7ea>
    2b1a:	8b 4c 24 1c          	mov    0x1c(%esp),%ecx
    2b1e:	89 f2                	mov    %esi,%edx
    2b20:	8b 44 24 20          	mov    0x20(%esp),%eax
    2b24:	e8 fc ff ff ff       	call   2b25 <ext3_new_inode+0x8fd>
			2b25: R_386_PC32	ext3_init_acl
    2b29:	85 c0                	test   %eax,%eax
    2b2b:	89 c3                	mov    %eax,%ebx
    2b2d:	75 9f                	jne    2ace <ext3_new_inode+0x8a6>
    2b2f:	e9 13 ff ff ff       	jmp    2a47 <ext3_new_inode+0x81f>

00002b34 <ext3_free_inode>:
    2b34:	55                   	push   %ebp
    2b35:	57                   	push   %edi
    2b36:	56                   	push   %esi
    2b37:	53                   	push   %ebx
    2b38:	89 d3                	mov    %edx,%ebx
    2b3a:	83 ec 24             	sub    $0x24,%esp
    2b3d:	89 44 24 04          	mov    %eax,0x4(%esp)
    2b41:	8b 42 24             	mov    0x24(%edx),%eax
    2b44:	8b b2 a4 00 00 00    	mov    0xa4(%edx),%esi
    2b4a:	48                   	dec    %eax
    2b4b:	7e 0b                	jle    2b58 <ext3_free_inode+0x24>
    2b4d:	8b 42 24             	mov    0x24(%edx),%eax
    2b50:	50                   	push   %eax
    2b51:	68 67 06 00 00       	push   $0x667
			2b52: R_386_32	.rodata.str1.1
    2b56:	eb 0d                	jmp    2b65 <ext3_free_inode+0x31>
    2b58:	8b 42 28             	mov    0x28(%edx),%eax
    2b5b:	85 c0                	test   %eax,%eax
    2b5d:	74 12                	je     2b71 <ext3_free_inode+0x3d>
    2b5f:	50                   	push   %eax
    2b60:	68 8c 06 00 00       	push   $0x68c
			2b61: R_386_32	.rodata.str1.1
    2b65:	e8 fc ff ff ff       	call   2b66 <ext3_free_inode+0x32>
			2b66: R_386_PC32	printk
    2b6a:	58                   	pop    %eax
    2b6b:	5a                   	pop    %edx
    2b6c:	e9 e0 01 00 00       	jmp    2d51 <ext3_free_inode+0x21d>
    2b71:	85 f6                	test   %esi,%esi
    2b73:	75 10                	jne    2b85 <ext3_free_inode+0x51>
    2b75:	68 b1 06 00 00       	push   $0x6b1
			2b76: R_386_32	.rodata.str1.1
    2b7a:	e8 fc ff ff ff       	call   2b7b <ext3_free_inode+0x47>
			2b7b: R_386_PC32	printk
    2b7f:	5d                   	pop    %ebp
    2b80:	e9 cc 01 00 00       	jmp    2d51 <ext3_free_inode+0x21d>
    2b85:	8b 86 84 01 00 00    	mov    0x184(%esi),%eax
    2b8b:	89 44 24 08          	mov    %eax,0x8(%esp)
    2b8f:	89 d0                	mov    %edx,%eax
    2b91:	8b 7a 20             	mov    0x20(%edx),%edi
    2b94:	e8 e4 f4 ff ff       	call   207d <vfs_dq_init>
    2b99:	89 da                	mov    %ebx,%edx
    2b9b:	8b 44 24 04          	mov    0x4(%esp),%eax
    2b9f:	e8 fc ff ff ff       	call   2ba0 <ext3_free_inode+0x6c>
			2ba0: R_386_PC32	ext3_xattr_delete_inode
    2ba4:	89 d8                	mov    %ebx,%eax
    2ba6:	e8 e1 f3 ff ff       	call   1f8c <vfs_dq_free_inode>
    2bab:	89 d8                	mov    %ebx,%eax
    2bad:	e8 fc ff ff ff       	call   2bae <ext3_free_inode+0x7a>
			2bae: R_386_PC32	vfs_dq_drop
    2bb2:	66 8b 53 72          	mov    0x72(%ebx),%dx
    2bb6:	89 d8                	mov    %ebx,%eax
    2bb8:	66 89 54 24 10       	mov    %dx,0x10(%esp)
    2bbd:	e8 fc ff ff ff       	call   2bbe <ext3_free_inode+0x8a>
			2bbe: R_386_PC32	clear_inode
    2bc2:	8b 8e 84 01 00 00    	mov    0x184(%esi),%ecx
    2bc8:	3b 79 5c             	cmp    0x5c(%ecx),%edi
    2bcb:	8b 41 34             	mov    0x34(%ecx),%eax
    2bce:	72 04                	jb     2bd4 <ext3_free_inode+0xa0>
    2bd0:	3b 38                	cmp    (%eax),%edi
    2bd2:	76 19                	jbe    2bed <ext3_free_inode+0xb9>
    2bd4:	57                   	push   %edi
    2bd5:	68 df 06 00 00       	push   $0x6df
			2bd6: R_386_32	.rodata.str1.1
    2bda:	68 01 07 00 00       	push   $0x701
			2bdb: R_386_32	.rodata.str1.1
    2bdf:	56                   	push   %esi
    2be0:	e8 fc ff ff ff       	call   2be1 <ext3_free_inode+0xad>
			2be1: R_386_PC32	ext3_error
    2be5:	83 c4 10             	add    $0x10,%esp
    2be8:	e9 64 01 00 00       	jmp    2d51 <ext3_free_inode+0x21d>
    2bed:	31 d2                	xor    %edx,%edx
    2bef:	8d 47 ff             	lea    -0x1(%edi),%eax
    2bf2:	f7 71 14             	divl   0x14(%ecx)
    2bf5:	89 54 24 0c          	mov    %edx,0xc(%esp)
    2bf9:	89 c2                	mov    %eax,%edx
    2bfb:	89 04 24             	mov    %eax,(%esp)
    2bfe:	89 f0                	mov    %esi,%eax
    2c00:	e8 24 f4 ff ff       	call   2029 <read_inode_bitmap>
    2c05:	85 c0                	test   %eax,%eax
    2c07:	89 c5                	mov    %eax,%ebp
    2c09:	0f 84 42 01 00 00    	je     2d51 <ext3_free_inode+0x21d>
    2c0f:	8b 54 24 04          	mov    0x4(%esp),%edx
    2c13:	89 c1                	mov    %eax,%ecx
    2c15:	b8 ec 01 00 00       	mov    $0x1ec,%eax
			2c16: R_386_32	.rodata
    2c1a:	e8 fc ff ff ff       	call   2c1b <ext3_free_inode+0xe7>
			2c1b: R_386_PC32	__ext3_journal_get_write_access
    2c1f:	85 c0                	test   %eax,%eax
    2c21:	89 c3                	mov    %eax,%ebx
    2c23:	0f 85 1d 01 00 00    	jne    2d46 <ext3_free_inode+0x212>
    2c29:	8b 45 18             	mov    0x18(%ebp),%eax
    2c2c:	8b 4c 24 0c          	mov    0xc(%esp),%ecx
    2c30:	f0 0f b3 08          	lock btr %ecx,(%eax)
    2c34:	19 d2                	sbb    %edx,%edx
    2c36:	85 d2                	test   %edx,%edx
    2c38:	75 19                	jne    2c53 <ext3_free_inode+0x11f>
    2c3a:	57                   	push   %edi
    2c3b:	68 11 07 00 00       	push   $0x711
			2c3c: R_386_32	.rodata.str1.1
    2c40:	68 01 07 00 00       	push   $0x701
			2c41: R_386_32	.rodata.str1.1
    2c45:	56                   	push   %esi
    2c46:	e8 fc ff ff ff       	call   2c47 <ext3_free_inode+0x113>
			2c47: R_386_PC32	ext3_error
    2c4b:	83 c4 10             	add    $0x10,%esp
    2c4e:	e9 cc 00 00 00       	jmp    2d1f <ext3_free_inode+0x1eb>
    2c53:	8b 14 24             	mov    (%esp),%edx
    2c56:	8d 4c 24 20          	lea    0x20(%esp),%ecx
    2c5a:	89 f0                	mov    %esi,%eax
    2c5c:	e8 fc ff ff ff       	call   2c5d <ext3_free_inode+0x129>
			2c5d: R_386_PC32	ext3_get_group_desc
    2c61:	8b 4c 24 20          	mov    0x20(%esp),%ecx
    2c65:	8b 54 24 04          	mov    0x4(%esp),%edx
    2c69:	89 c7                	mov    %eax,%edi
    2c6b:	b8 ec 01 00 00       	mov    $0x1ec,%eax
			2c6c: R_386_32	.rodata
    2c70:	e8 fc ff ff ff       	call   2c71 <ext3_free_inode+0x13d>
			2c71: R_386_PC32	__ext3_journal_get_write_access
    2c75:	85 c0                	test   %eax,%eax
    2c77:	89 c3                	mov    %eax,%ebx
    2c79:	0f 85 c7 00 00 00    	jne    2d46 <ext3_free_inode+0x212>
    2c7f:	85 ff                	test   %edi,%edi
    2c81:	0f 84 84 00 00 00    	je     2d0b <ext3_free_inode+0x1d7>
    2c87:	8b 44 24 10          	mov    0x10(%esp),%eax
    2c8b:	31 db                	xor    %ebx,%ebx
    2c8d:	8b 54 24 08          	mov    0x8(%esp),%edx
    2c91:	25 00 f0 00 00       	and    $0xf000,%eax
    2c96:	3d 00 40 00 00       	cmp    $0x4000,%eax
    2c9b:	8b 04 24             	mov    (%esp),%eax
    2c9e:	0f 94 c3             	sete   %bl
    2ca1:	83 e0 7f             	and    $0x7f,%eax
    2ca4:	89 04 24             	mov    %eax,(%esp)
    2ca7:	c1 e0 05             	shl    $0x5,%eax
    2caa:	03 82 c8 00 00 00    	add    0xc8(%edx),%eax
    2cb0:	e8 fc ff ff ff       	call   2cb1 <ext3_free_inode+0x17d>
			2cb1: R_386_PC32	_spin_lock
    2cb5:	66 ff 47 0e          	incw   0xe(%edi)
    2cb9:	85 db                	test   %ebx,%ebx
    2cbb:	74 04                	je     2cc1 <ext3_free_inode+0x18d>
    2cbd:	66 ff 4f 10          	decw   0x10(%edi)
    2cc1:	8b 04 24             	mov    (%esp),%eax
    2cc4:	8b 4c 24 08          	mov    0x8(%esp),%ecx
    2cc8:	c1 e0 05             	shl    $0x5,%eax
    2ccb:	03 81 c8 00 00 00    	add    0xc8(%ecx),%eax
    2cd1:	fe 00                	incb   (%eax)
    2cd3:	ff 35 00 00 00 00    	pushl  0x0
			2cd5: R_386_32	percpu_counter_batch
    2cd9:	89 c8                	mov    %ecx,%eax
    2cdb:	05 98 00 00 00       	add    $0x98,%eax
    2ce0:	31 c9                	xor    %ecx,%ecx
    2ce2:	ba 01 00 00 00       	mov    $0x1,%edx
    2ce7:	e8 fc ff ff ff       	call   2ce8 <ext3_free_inode+0x1b4>
			2ce8: R_386_PC32	__percpu_counter_add
    2cec:	85 db                	test   %ebx,%ebx
    2cee:	5f                   	pop    %edi
    2cef:	74 1a                	je     2d0b <ext3_free_inode+0x1d7>
    2cf1:	8b 44 24 08          	mov    0x8(%esp),%eax
    2cf5:	83 ca ff             	or     $0xffffffff,%edx
    2cf8:	ff 35 00 00 00 00    	pushl  0x0
			2cfa: R_386_32	percpu_counter_batch
    2cfe:	89 d1                	mov    %edx,%ecx
    2d00:	05 b0 00 00 00       	add    $0xb0,%eax
    2d05:	e8 fc ff ff ff       	call   2d06 <ext3_free_inode+0x1d2>
			2d06: R_386_PC32	__percpu_counter_add
    2d0a:	59                   	pop    %ecx
    2d0b:	8b 4c 24 20          	mov    0x20(%esp),%ecx
    2d0f:	b8 ec 01 00 00       	mov    $0x1ec,%eax
			2d10: R_386_32	.rodata
    2d14:	8b 54 24 04          	mov    0x4(%esp),%edx
    2d18:	e8 fc ff ff ff       	call   2d19 <ext3_free_inode+0x1e5>
			2d19: R_386_PC32	__ext3_journal_dirty_metadata
    2d1d:	89 c3                	mov    %eax,%ebx
    2d1f:	8b 54 24 04          	mov    0x4(%esp),%edx
    2d23:	89 e9                	mov    %ebp,%ecx
    2d25:	b8 ec 01 00 00       	mov    $0x1ec,%eax
			2d26: R_386_32	.rodata
    2d2a:	e8 fc ff ff ff       	call   2d2b <ext3_free_inode+0x1f7>
			2d2b: R_386_PC32	__ext3_journal_dirty_metadata
    2d2f:	85 db                	test   %ebx,%ebx
    2d31:	0f 44 d8             	cmove  %eax,%ebx
    2d34:	eb 10                	jmp    2d46 <ext3_free_inode+0x212>
    2d36:	89 d9                	mov    %ebx,%ecx
    2d38:	ba ec 01 00 00       	mov    $0x1ec,%edx
			2d39: R_386_32	.rodata
    2d3d:	89 f0                	mov    %esi,%eax
    2d3f:	e8 fc ff ff ff       	call   2d40 <ext3_free_inode+0x20c>
			2d40: R_386_PC32	__ext3_std_error
    2d44:	eb 0b                	jmp    2d51 <ext3_free_inode+0x21d>
    2d46:	89 e8                	mov    %ebp,%eax
    2d48:	e8 fc ff ff ff       	call   2d49 <ext3_free_inode+0x215>
			2d49: R_386_PC32	__brelse
    2d4d:	85 db                	test   %ebx,%ebx
    2d4f:	75 e5                	jne    2d36 <ext3_free_inode+0x202>
    2d51:	83 c4 24             	add    $0x24,%esp
    2d54:	5b                   	pop    %ebx
    2d55:	5e                   	pop    %esi
    2d56:	5f                   	pop    %edi
    2d57:	5d                   	pop    %ebp
    2d58:	c3                   	ret    
    2d59:	90                   	nop
    2d5a:	90                   	nop
    2d5b:	90                   	nop

00002d5c <walk_page_buffers>:
    2d5c:	55                   	push   %ebp
    2d5d:	57                   	push   %edi
    2d5e:	56                   	push   %esi
    2d5f:	53                   	push   %ebx
    2d60:	89 d3                	mov    %edx,%ebx
    2d62:	83 ec 0c             	sub    $0xc,%esp
    2d65:	89 44 24 08          	mov    %eax,0x8(%esp)
    2d69:	8b 74 24 24          	mov    0x24(%esp),%esi
    2d6d:	31 c0                	xor    %eax,%eax
    2d6f:	8b 6a 14             	mov    0x14(%edx),%ebp
    2d72:	eb 3d                	jmp    2db1 <walk_page_buffers+0x55>
    2d74:	8b 7a 04             	mov    0x4(%edx),%edi
    2d77:	3b 44 24 20          	cmp    0x20(%esp),%eax
    2d7b:	89 7c 24 04          	mov    %edi,0x4(%esp)
    2d7f:	8d 3c 28             	lea    (%eax,%ebp,1),%edi
    2d82:	73 04                	jae    2d88 <walk_page_buffers+0x2c>
    2d84:	39 cf                	cmp    %ecx,%edi
    2d86:	77 11                	ja     2d99 <walk_page_buffers+0x3d>
    2d88:	85 f6                	test   %esi,%esi
    2d8a:	74 1f                	je     2dab <walk_page_buffers+0x4f>
    2d8c:	f6 02 01             	testb  $0x1,(%edx)
    2d8f:	75 1a                	jne    2dab <walk_page_buffers+0x4f>
    2d91:	c7 06 01 00 00 00    	movl   $0x1,(%esi)
    2d97:	eb 12                	jmp    2dab <walk_page_buffers+0x4f>
    2d99:	8b 44 24 08          	mov    0x8(%esp),%eax
    2d9d:	89 0c 24             	mov    %ecx,(%esp)
    2da0:	ff 54 24 28          	call   *0x28(%esp)
    2da4:	8b 0c 24             	mov    (%esp),%ecx
    2da7:	85 c0                	test   %eax,%eax
    2da9:	75 10                	jne    2dbb <walk_page_buffers+0x5f>
    2dab:	8b 54 24 04          	mov    0x4(%esp),%edx
    2daf:	89 f8                	mov    %edi,%eax
    2db1:	85 c0                	test   %eax,%eax
    2db3:	74 bf                	je     2d74 <walk_page_buffers+0x18>
    2db5:	39 da                	cmp    %ebx,%edx
    2db7:	75 bb                	jne    2d74 <walk_page_buffers+0x18>
    2db9:	31 c0                	xor    %eax,%eax
    2dbb:	83 c4 0c             	add    $0xc,%esp
    2dbe:	5b                   	pop    %ebx
    2dbf:	5e                   	pop    %esi
    2dc0:	5f                   	pop    %edi
    2dc1:	5d                   	pop    %ebp
    2dc2:	c3                   	ret    

00002dc3 <bget_one>:
    2dc3:	f0 ff 42 34          	lock incl 0x34(%edx)
    2dc7:	31 c0                	xor    %eax,%eax
    2dc9:	c3                   	ret    

00002dca <bput_one>:
    2dca:	f0 ff 4a 34          	lock decl 0x34(%edx)
    2dce:	31 c0                	xor    %eax,%eax
    2dd0:	c3                   	ret    

00002dd1 <buffer_unmapped>:
    2dd1:	8b 02                	mov    (%edx),%eax
    2dd3:	c1 e8 05             	shr    $0x5,%eax
    2dd6:	83 e0 01             	and    $0x1,%eax
    2dd9:	83 f0 01             	xor    $0x1,%eax
    2ddc:	c3                   	ret    

00002ddd <ext3_set_aops>:
    2ddd:	0f b7 50 72          	movzwl 0x72(%eax),%edx
    2de1:	81 e2 00 f0 00 00    	and    $0xf000,%edx
    2de7:	81 fa 00 80 00 00    	cmp    $0x8000,%edx
    2ded:	75 2b                	jne    2e1a <ext3_set_aops+0x3d>
    2def:	f6 40 a1 40          	testb  $0x40,-0x5f(%eax)
    2df3:	75 25                	jne    2e1a <ext3_set_aops+0x3d>
    2df5:	8b 90 a4 00 00 00    	mov    0xa4(%eax),%edx
    2dfb:	8b 92 84 01 00 00    	mov    0x184(%edx),%edx
    2e01:	8b 52 3c             	mov    0x3c(%edx),%edx
    2e04:	81 e2 00 0c 00 00    	and    $0xc00,%edx
    2e0a:	81 fa 00 08 00 00    	cmp    $0x800,%edx
    2e10:	74 16                	je     2e28 <ext3_set_aops+0x4b>
    2e12:	81 fa 00 0c 00 00    	cmp    $0xc00,%edx
    2e18:	74 1c                	je     2e36 <ext3_set_aops+0x59>
    2e1a:	8b 80 ac 00 00 00    	mov    0xac(%eax),%eax
    2e20:	c7 40 38 84 03 00 00 	movl   $0x384,0x38(%eax)
			2e23: R_386_32	.rodata
    2e27:	c3                   	ret    
    2e28:	8b 80 ac 00 00 00    	mov    0xac(%eax),%eax
    2e2e:	c7 40 38 fc 02 00 00 	movl   $0x2fc,0x38(%eax)
			2e31: R_386_32	.rodata
    2e35:	c3                   	ret    
    2e36:	8b 80 ac 00 00 00    	mov    0xac(%eax),%eax
    2e3c:	c7 40 38 40 03 00 00 	movl   $0x340,0x38(%eax)
			2e3f: R_386_32	.rodata
    2e43:	c3                   	ret    

00002e44 <ext3_can_truncate>:
    2e44:	53                   	push   %ebx
    2e45:	f6 80 48 01 00 00 0c 	testb  $0xc,0x148(%eax)
    2e4c:	75 53                	jne    2ea1 <ext3_can_truncate+0x5d>
    2e4e:	0f b7 50 72          	movzwl 0x72(%eax),%edx
    2e52:	81 e2 00 f0 00 00    	and    $0xf000,%edx
    2e58:	81 fa 00 80 00 00    	cmp    $0x8000,%edx
    2e5e:	74 45                	je     2ea5 <ext3_can_truncate+0x61>
    2e60:	81 fa 00 40 00 00    	cmp    $0x4000,%edx
    2e66:	74 3d                	je     2ea5 <ext3_can_truncate+0x61>
    2e68:	81 fa 00 a0 00 00    	cmp    $0xa000,%edx
    2e6e:	75 31                	jne    2ea1 <ext3_can_truncate+0x5d>
    2e70:	66 31 d2             	xor    %dx,%dx
    2e73:	83 78 a4 00          	cmpl   $0x0,-0x5c(%eax)
    2e77:	74 0c                	je     2e85 <ext3_can_truncate+0x41>
    2e79:	8b 90 a4 00 00 00    	mov    0xa4(%eax),%edx
    2e7f:	8b 52 0c             	mov    0xc(%edx),%edx
    2e82:	c1 ea 09             	shr    $0x9,%edx
    2e85:	8b 58 64             	mov    0x64(%eax),%ebx
    2e88:	89 d1                	mov    %edx,%ecx
    2e8a:	8b 40 68             	mov    0x68(%eax),%eax
    2e8d:	c1 f9 1f             	sar    $0x1f,%ecx
    2e90:	31 d3                	xor    %edx,%ebx
    2e92:	31 c8                	xor    %ecx,%eax
    2e94:	09 c3                	or     %eax,%ebx
    2e96:	0f 94 c0             	sete   %al
    2e99:	0f b6 c0             	movzbl %al,%eax
    2e9c:	83 f0 01             	xor    $0x1,%eax
    2e9f:	eb 09                	jmp    2eaa <ext3_can_truncate+0x66>
    2ea1:	31 c0                	xor    %eax,%eax
    2ea3:	eb 05                	jmp    2eaa <ext3_can_truncate+0x66>
    2ea5:	b8 01 00 00 00       	mov    $0x1,%eax
    2eaa:	5b                   	pop    %ebx
    2eab:	c3                   	ret    

00002eac <ext3_set_inode_flags>:
    2eac:	8b 88 48 01 00 00    	mov    0x148(%eax),%ecx
    2eb2:	8b 50 a0             	mov    -0x60(%eax),%edx
    2eb5:	83 e1 b0             	and    $0xffffffb0,%ecx
    2eb8:	f6 c2 08             	test   $0x8,%dl
    2ebb:	89 88 48 01 00 00    	mov    %ecx,0x148(%eax)
    2ec1:	74 09                	je     2ecc <ext3_set_inode_flags+0x20>
    2ec3:	83 c9 01             	or     $0x1,%ecx
    2ec6:	89 88 48 01 00 00    	mov    %ecx,0x148(%eax)
    2ecc:	f6 c2 20             	test   $0x20,%dl
    2ecf:	74 07                	je     2ed8 <ext3_set_inode_flags+0x2c>
    2ed1:	83 88 48 01 00 00 04 	orl    $0x4,0x148(%eax)
    2ed8:	f6 c2 10             	test   $0x10,%dl
    2edb:	74 07                	je     2ee4 <ext3_set_inode_flags+0x38>
    2edd:	83 88 48 01 00 00 08 	orl    $0x8,0x148(%eax)
    2ee4:	84 d2                	test   %dl,%dl
    2ee6:	79 07                	jns    2eef <ext3_set_inode_flags+0x43>
    2ee8:	83 88 48 01 00 00 02 	orl    $0x2,0x148(%eax)
    2eef:	81 e2 00 00 01 00    	and    $0x10000,%edx
    2ef5:	74 07                	je     2efe <ext3_set_inode_flags+0x52>
    2ef7:	83 88 48 01 00 00 40 	orl    $0x40,0x148(%eax)
    2efe:	c3                   	ret    

00002eff <ext3_get_inode_flags>:
    2eff:	8b 48 3c             	mov    0x3c(%eax),%ecx
    2f02:	8b 90 e4 01 00 00    	mov    0x1e4(%eax),%edx
    2f08:	81 e1 47 ff fe ff    	and    $0xfffeff47,%ecx
    2f0e:	f6 c2 01             	test   $0x1,%dl
    2f11:	89 48 3c             	mov    %ecx,0x3c(%eax)
    2f14:	74 06                	je     2f1c <ext3_get_inode_flags+0x1d>
    2f16:	83 c9 08             	or     $0x8,%ecx
    2f19:	89 48 3c             	mov    %ecx,0x3c(%eax)
    2f1c:	f6 c2 04             	test   $0x4,%dl
    2f1f:	74 04                	je     2f25 <ext3_get_inode_flags+0x26>
    2f21:	83 48 3c 20          	orl    $0x20,0x3c(%eax)
    2f25:	f6 c2 08             	test   $0x8,%dl
    2f28:	74 04                	je     2f2e <ext3_get_inode_flags+0x2f>
    2f2a:	83 48 3c 10          	orl    $0x10,0x3c(%eax)
    2f2e:	f6 c2 02             	test   $0x2,%dl
    2f31:	74 07                	je     2f3a <ext3_get_inode_flags+0x3b>
    2f33:	81 48 3c 80 00 00 00 	orl    $0x80,0x3c(%eax)
    2f3a:	80 e2 40             	and    $0x40,%dl
    2f3d:	74 07                	je     2f46 <ext3_get_inode_flags+0x47>
    2f3f:	81 48 3c 00 00 01 00 	orl    $0x10000,0x3c(%eax)
    2f46:	c3                   	ret    

00002f47 <start_transaction>:
    2f47:	55                   	push   %ebp
    2f48:	57                   	push   %edi
    2f49:	56                   	push   %esi
    2f4a:	89 c6                	mov    %eax,%esi
    2f4c:	53                   	push   %ebx
    2f4d:	8b 80 a4 00 00 00    	mov    0xa4(%eax),%eax
    2f53:	8b 6e 68             	mov    0x68(%esi),%ebp
    2f56:	8b 7e 64             	mov    0x64(%esi),%edi
    2f59:	0f b6 48 10          	movzbl 0x10(%eax),%ecx
    2f5d:	83 e9 09             	sub    $0x9,%ecx
    2f60:	0f ad ef             	shrd   %cl,%ebp,%edi
    2f63:	d3 ed                	shr    %cl,%ebp
    2f65:	f6 c1 20             	test   $0x20,%cl
    2f68:	0f 45 fd             	cmovne %ebp,%edi
    2f6b:	83 ff 01             	cmp    $0x1,%edi
    2f6e:	77 07                	ja     2f77 <start_transaction+0x30>
    2f70:	bf 02 00 00 00       	mov    $0x2,%edi
    2f75:	eb 0b                	jmp    2f82 <start_transaction+0x3b>
    2f77:	83 ff 41             	cmp    $0x41,%edi
    2f7a:	ba 40 00 00 00       	mov    $0x40,%edx
    2f7f:	0f 43 fa             	cmovae %edx,%edi
    2f82:	8b 90 84 01 00 00    	mov    0x184(%eax),%edx
    2f88:	8b 52 3c             	mov    0x3c(%edx),%edx
    2f8b:	81 e2 00 00 08 00    	and    $0x80000,%edx
    2f91:	83 fa 01             	cmp    $0x1,%edx
    2f94:	19 d2                	sbb    %edx,%edx
    2f96:	83 e2 fc             	and    $0xfffffffc,%edx
    2f99:	8d 54 3a 10          	lea    0x10(%edx,%edi,1),%edx
    2f9d:	e8 fc ff ff ff       	call   2f9e <start_transaction+0x57>
			2f9e: R_386_PC32	ext3_journal_start_sb
    2fa2:	3d 00 f0 ff ff       	cmp    $0xfffff000,%eax
    2fa7:	89 c3                	mov    %eax,%ebx
    2fa9:	76 16                	jbe    2fc1 <start_transaction+0x7a>
    2fab:	85 c0                	test   %eax,%eax
    2fad:	74 12                	je     2fc1 <start_transaction+0x7a>
    2faf:	8b 86 a4 00 00 00    	mov    0xa4(%esi),%eax
    2fb5:	89 d9                	mov    %ebx,%ecx
    2fb7:	ba 84 02 00 00       	mov    $0x284,%edx
			2fb8: R_386_32	.rodata
    2fbc:	e8 fc ff ff ff       	call   2fbd <start_transaction+0x76>
			2fbd: R_386_PC32	__ext3_std_error
    2fc1:	89 d8                	mov    %ebx,%eax
    2fc3:	5b                   	pop    %ebx
    2fc4:	5e                   	pop    %esi
    2fc5:	5f                   	pop    %edi
    2fc6:	5d                   	pop    %ebp
    2fc7:	c3                   	ret    

00002fc8 <do_journal_get_write_access>:
    2fc8:	8b 0a                	mov    (%edx),%ecx
    2fca:	f6 c1 20             	test   $0x20,%cl
    2fcd:	74 16                	je     2fe5 <do_journal_get_write_access+0x1d>
    2fcf:	81 e1 00 00 04 00    	and    $0x40000,%ecx
    2fd5:	75 0e                	jne    2fe5 <do_journal_get_write_access+0x1d>
    2fd7:	89 d1                	mov    %edx,%ecx
    2fd9:	89 c2                	mov    %eax,%edx
    2fdb:	b8 10 04 00 00       	mov    $0x410,%eax
			2fdc: R_386_32	.rodata
    2fe0:	e9 fc ff ff ff       	jmp    2fe1 <do_journal_get_write_access+0x19>
			2fe1: R_386_PC32	__ext3_journal_get_write_access
    2fe5:	31 c0                	xor    %eax,%eax
    2fe7:	c3                   	ret    

00002fe8 <brelse>:
    2fe8:	85 c0                	test   %eax,%eax
    2fea:	74 05                	je     2ff1 <brelse+0x9>
    2fec:	e9 fc ff ff ff       	jmp    2fed <brelse+0x5>
			2fed: R_386_PC32	__brelse
    2ff1:	c3                   	ret    

00002ff2 <write_end_fn>:
    2ff2:	8b 0a                	mov    (%edx),%ecx
    2ff4:	f6 c1 20             	test   $0x20,%cl
    2ff7:	74 1a                	je     3013 <write_end_fn+0x21>
    2ff9:	81 e1 00 00 04 00    	and    $0x40000,%ecx
    2fff:	75 12                	jne    3013 <write_end_fn+0x21>
    3001:	f0 80 0a 01          	lock orb $0x1,(%edx)
    3005:	89 d1                	mov    %edx,%ecx
    3007:	89 c2                	mov    %eax,%edx
    3009:	b8 e4 03 00 00       	mov    $0x3e4,%eax
			300a: R_386_32	.rodata
    300e:	e9 fc ff ff ff       	jmp    300f <write_end_fn+0x1d>
			300f: R_386_PC32	__ext3_journal_dirty_metadata
    3013:	31 c0                	xor    %eax,%eax
    3015:	c3                   	ret    

00003016 <ext3_write_inode>:
    3016:	64 8b 0d 00 00 00 00 	mov    %fs:0x0,%ecx
			3019: R_386_32	per_cpu__current_task
    301d:	f6 41 0d 08          	testb  $0x8,0xd(%ecx)
    3021:	75 23                	jne    3046 <ext3_write_inode+0x30>
    3023:	83 b9 44 03 00 00 00 	cmpl   $0x0,0x344(%ecx)
    302a:	74 0b                	je     3037 <ext3_write_inode+0x21>
    302c:	e8 fc ff ff ff       	call   302d <ext3_write_inode+0x17>
			302d: R_386_PC32	dump_stack
    3031:	b8 fb ff ff ff       	mov    $0xfffffffb,%eax
    3036:	c3                   	ret    
    3037:	85 d2                	test   %edx,%edx
    3039:	74 0b                	je     3046 <ext3_write_inode+0x30>
    303b:	8b 80 a4 00 00 00    	mov    0xa4(%eax),%eax
    3041:	e9 fc ff ff ff       	jmp    3042 <ext3_write_inode+0x2c>
			3042: R_386_PC32	ext3_force_commit
    3046:	31 c0                	xor    %eax,%eax
    3048:	c3                   	ret    

00003049 <wait_on_buffer>:
    3049:	53                   	push   %ebx
    304a:	89 c3                	mov    %eax,%ebx
    304c:	e8 fc ff ff ff       	call   304d <wait_on_buffer+0x4>
			304d: R_386_PC32	_cond_resched
    3051:	f6 03 04             	testb  $0x4,(%ebx)
    3054:	75 07                	jne    305d <wait_on_buffer+0x14>
    3056:	8b 43 34             	mov    0x34(%ebx),%eax
    3059:	85 c0                	test   %eax,%eax
    305b:	75 08                	jne    3065 <wait_on_buffer+0x1c>
    305d:	89 d8                	mov    %ebx,%eax
    305f:	5b                   	pop    %ebx
    3060:	e9 fc ff ff ff       	jmp    3061 <wait_on_buffer+0x18>
			3061: R_386_PC32	__wait_on_buffer
    3065:	5b                   	pop    %ebx
    3066:	c3                   	ret    

00003067 <zero_user>:
    3067:	57                   	push   %edi
    3068:	89 d7                	mov    %edx,%edi
    306a:	56                   	push   %esi
    306b:	53                   	push   %ebx
    306c:	8d 34 11             	lea    (%ecx,%edx,1),%esi
    306f:	ba 03 00 00 00       	mov    $0x3,%edx
    3074:	e8 fc ff ff ff       	call   3075 <zero_user+0xe>
			3075: R_386_PC32	kmap_atomic
    3079:	81 fe 00 10 00 00    	cmp    $0x1000,%esi
    307f:	89 c3                	mov    %eax,%ebx
    3081:	76 04                	jbe    3087 <zero_user+0x20>
    3083:	0f 0b                	ud2a   
    3085:	eb fe                	jmp    3085 <zero_user+0x1e>
    3087:	39 fe                	cmp    %edi,%esi
    3089:	76 1d                	jbe    30a8 <zero_user+0x41>
    308b:	89 f2                	mov    %esi,%edx
    308d:	29 fa                	sub    %edi,%edx
    308f:	89 d1                	mov    %edx,%ecx
    3091:	8d 3c 38             	lea    (%eax,%edi,1),%edi
    3094:	31 c0                	xor    %eax,%eax
    3096:	c1 e9 02             	shr    $0x2,%ecx
    3099:	f3 ab                	rep stos %eax,%es:(%edi)
    309b:	f6 c2 02             	test   $0x2,%dl
    309e:	74 02                	je     30a2 <zero_user+0x3b>
    30a0:	66 ab                	stos   %ax,%es:(%edi)
    30a2:	f6 c2 01             	test   $0x1,%dl
    30a5:	74 01                	je     30a8 <zero_user+0x41>
    30a7:	aa                   	stos   %al,%es:(%edi)
    30a8:	89 d8                	mov    %ebx,%eax
    30aa:	ba 03 00 00 00       	mov    $0x3,%edx
    30af:	5b                   	pop    %ebx
    30b0:	5e                   	pop    %esi
    30b1:	5f                   	pop    %edi
    30b2:	e9 fc ff ff ff       	jmp    30b3 <zero_user+0x4c>
			30b3: R_386_PC32	kunmap_atomic

000030b7 <ext3_block_to_path>:
    30b7:	55                   	push   %ebp
    30b8:	57                   	push   %edi
    30b9:	56                   	push   %esi
    30ba:	53                   	push   %ebx
    30bb:	8b 80 a4 00 00 00    	mov    0xa4(%eax),%eax
    30c1:	89 d3                	mov    %edx,%ebx
    30c3:	89 ca                	mov    %ecx,%edx
    30c5:	8b 70 0c             	mov    0xc(%eax),%esi
    30c8:	8b 88 84 01 00 00    	mov    0x184(%eax),%ecx
    30ce:	c1 ee 02             	shr    $0x2,%esi
    30d1:	85 db                	test   %ebx,%ebx
    30d3:	8b 79 50             	mov    0x50(%ecx),%edi
    30d6:	79 0a                	jns    30e2 <ext3_block_to_path+0x2b>
    30d8:	68 4b 07 00 00       	push   $0x74b
			30d9: R_386_32	.rodata.str1.1
    30dd:	e9 95 00 00 00       	jmp    3177 <ext3_block_to_path+0xc0>
    30e2:	83 fb 0b             	cmp    $0xb,%ebx
    30e5:	7f 11                	jg     30f8 <ext3_block_to_path+0x41>
    30e7:	89 1a                	mov    %ebx,(%edx)
    30e9:	b8 01 00 00 00       	mov    $0x1,%eax
    30ee:	ba 0c 00 00 00       	mov    $0xc,%edx
    30f3:	e9 91 00 00 00       	jmp    3189 <ext3_block_to_path+0xd2>
    30f8:	83 eb 0c             	sub    $0xc,%ebx
    30fb:	39 f3                	cmp    %esi,%ebx
    30fd:	7d 12                	jge    3111 <ext3_block_to_path+0x5a>
    30ff:	c7 02 0c 00 00 00    	movl   $0xc,(%edx)
    3105:	b8 02 00 00 00       	mov    $0x2,%eax
    310a:	89 5a 04             	mov    %ebx,0x4(%edx)
    310d:	89 f2                	mov    %esi,%edx
    310f:	eb 78                	jmp    3189 <ext3_block_to_path+0xd2>
    3111:	8d 0c 3f             	lea    (%edi,%edi,1),%ecx
    3114:	bd 01 00 00 00       	mov    $0x1,%ebp
    3119:	d3 e5                	shl    %cl,%ebp
    311b:	29 f3                	sub    %esi,%ebx
    311d:	39 eb                	cmp    %ebp,%ebx
    311f:	7d 20                	jge    3141 <ext3_block_to_path+0x8a>
    3121:	89 dd                	mov    %ebx,%ebp
    3123:	89 f9                	mov    %edi,%ecx
    3125:	8d 46 ff             	lea    -0x1(%esi),%eax
    3128:	21 d8                	and    %ebx,%eax
    312a:	d3 fd                	sar    %cl,%ebp
    312c:	89 42 08             	mov    %eax,0x8(%edx)
    312f:	b8 03 00 00 00       	mov    $0x3,%eax
    3134:	c7 02 0d 00 00 00    	movl   $0xd,(%edx)
    313a:	89 6a 04             	mov    %ebp,0x4(%edx)
    313d:	89 f2                	mov    %esi,%edx
    313f:	eb 48                	jmp    3189 <ext3_block_to_path+0xd2>
    3141:	29 eb                	sub    %ebp,%ebx
    3143:	89 dd                	mov    %ebx,%ebp
    3145:	d3 fd                	sar    %cl,%ebp
    3147:	39 f5                	cmp    %esi,%ebp
    3149:	7d 27                	jge    3172 <ext3_block_to_path+0xbb>
    314b:	89 6a 04             	mov    %ebp,0x4(%edx)
    314e:	89 f9                	mov    %edi,%ecx
    3150:	89 dd                	mov    %ebx,%ebp
    3152:	d3 fd                	sar    %cl,%ebp
    3154:	8d 46 ff             	lea    -0x1(%esi),%eax
    3157:	89 ef                	mov    %ebp,%edi
    3159:	21 c7                	and    %eax,%edi
    315b:	21 d8                	and    %ebx,%eax
    315d:	89 42 0c             	mov    %eax,0xc(%edx)
    3160:	b8 04 00 00 00       	mov    $0x4,%eax
    3165:	c7 02 0e 00 00 00    	movl   $0xe,(%edx)
    316b:	89 7a 08             	mov    %edi,0x8(%edx)
    316e:	89 f2                	mov    %esi,%edx
    3170:	eb 17                	jmp    3189 <ext3_block_to_path+0xd2>
    3172:	68 68 07 00 00       	push   $0x768
			3173: R_386_32	.rodata.str1.1
    3177:	68 55 07 00 00       	push   $0x755
			3178: R_386_32	.rodata.str1.1
    317c:	50                   	push   %eax
    317d:	e8 fc ff ff ff       	call   317e <ext3_block_to_path+0xc7>
			317e: R_386_PC32	ext3_warning
    3182:	31 d2                	xor    %edx,%edx
    3184:	31 c0                	xor    %eax,%eax
    3186:	83 c4 0c             	add    $0xc,%esp
    3189:	83 7c 24 14 00       	cmpl   $0x0,0x14(%esp)
    318e:	74 0c                	je     319c <ext3_block_to_path+0xe5>
    3190:	8b 4c 24 14          	mov    0x14(%esp),%ecx
    3194:	4e                   	dec    %esi
    3195:	4a                   	dec    %edx
    3196:	21 de                	and    %ebx,%esi
    3198:	29 f2                	sub    %esi,%edx
    319a:	89 11                	mov    %edx,(%ecx)
    319c:	5b                   	pop    %ebx
    319d:	5e                   	pop    %esi
    319e:	5f                   	pop    %edi
    319f:	5d                   	pop    %ebp
    31a0:	c3                   	ret    

000031a1 <truncate_restart_transaction>:
    31a1:	55                   	push   %ebp
    31a2:	89 d5                	mov    %edx,%ebp
    31a4:	57                   	push   %edi
    31a5:	56                   	push   %esi
    31a6:	8d 72 e4             	lea    -0x1c(%edx),%esi
    31a9:	53                   	push   %ebx
    31aa:	89 c3                	mov    %eax,%ebx
    31ac:	89 f0                	mov    %esi,%eax
    31ae:	e8 fc ff ff ff       	call   31af <truncate_restart_transaction+0xe>
			31af: R_386_PC32	mutex_unlock
    31b3:	8b bd a4 00 00 00    	mov    0xa4(%ebp),%edi
    31b9:	8b 55 68             	mov    0x68(%ebp),%edx
    31bc:	8b 45 64             	mov    0x64(%ebp),%eax
    31bf:	0f b6 4f 10          	movzbl 0x10(%edi),%ecx
    31c3:	83 e9 09             	sub    $0x9,%ecx
    31c6:	0f ad d0             	shrd   %cl,%edx,%eax
    31c9:	d3 ea                	shr    %cl,%edx
    31cb:	f6 c1 20             	test   $0x20,%cl
    31ce:	0f 45 c2             	cmovne %edx,%eax
    31d1:	83 f8 01             	cmp    $0x1,%eax
    31d4:	77 07                	ja     31dd <truncate_restart_transaction+0x3c>
    31d6:	b8 02 00 00 00       	mov    $0x2,%eax
    31db:	eb 0b                	jmp    31e8 <truncate_restart_transaction+0x47>
    31dd:	83 f8 41             	cmp    $0x41,%eax
    31e0:	ba 40 00 00 00       	mov    $0x40,%edx
    31e5:	0f 43 c2             	cmovae %edx,%eax
    31e8:	8b 97 84 01 00 00    	mov    0x184(%edi),%edx
    31ee:	8b 52 3c             	mov    0x3c(%edx),%edx
    31f1:	81 e2 00 00 08 00    	and    $0x80000,%edx
    31f7:	83 fa 01             	cmp    $0x1,%edx
    31fa:	19 d2                	sbb    %edx,%edx
    31fc:	83 e2 fc             	and    $0xfffffffc,%edx
    31ff:	8d 54 02 10          	lea    0x10(%edx,%eax,1),%edx
    3203:	89 d8                	mov    %ebx,%eax
    3205:	e8 fc ff ff ff       	call   3206 <truncate_restart_transaction+0x65>
			3206: R_386_PC32	journal_restart
    320a:	89 c3                	mov    %eax,%ebx
    320c:	89 f0                	mov    %esi,%eax
    320e:	e8 fc ff ff ff       	call   320f <truncate_restart_transaction+0x6e>
			320f: R_386_PC32	mutex_lock
    3213:	89 d8                	mov    %ebx,%eax
    3215:	5b                   	pop    %ebx
    3216:	5e                   	pop    %esi
    3217:	5f                   	pop    %edi
    3218:	5d                   	pop    %ebp
    3219:	c3                   	ret    

0000321a <ext3_get_branch>:
    321a:	55                   	push   %ebp
    321b:	57                   	push   %edi
    321c:	56                   	push   %esi
    321d:	89 ce                	mov    %ecx,%esi
    321f:	53                   	push   %ebx
    3220:	83 ec 08             	sub    $0x8,%esp
    3223:	89 54 24 04          	mov    %edx,0x4(%esp)
    3227:	8b 54 24 20          	mov    0x20(%esp),%edx
    322b:	8b 7c 24 1c          	mov    0x1c(%esp),%edi
    322f:	8b a8 a4 00 00 00    	mov    0xa4(%eax),%ebp
    3235:	c7 02 00 00 00 00    	movl   $0x0,(%edx)
    323b:	8b 11                	mov    (%ecx),%edx
    323d:	89 fb                	mov    %edi,%ebx
    323f:	8d 84 90 64 ff ff ff 	lea    -0x9c(%eax,%edx,4),%eax
    3246:	89 07                	mov    %eax,(%edi)
    3248:	8b 00                	mov    (%eax),%eax
    324a:	c7 47 08 00 00 00 00 	movl   $0x0,0x8(%edi)
    3251:	89 47 04             	mov    %eax,0x4(%edi)
    3254:	85 c0                	test   %eax,%eax
    3256:	eb 4e                	jmp    32a6 <ext3_get_branch+0x8c>
    3258:	8b 53 04             	mov    0x4(%ebx),%edx
    325b:	31 c9                	xor    %ecx,%ecx
    325d:	8b 85 94 00 00 00    	mov    0x94(%ebp),%eax
    3263:	ff 75 0c             	pushl  0xc(%ebp)
    3266:	e8 fc ff ff ff       	call   3267 <ext3_get_branch+0x4d>
			3267: R_386_PC32	__bread
    326b:	5a                   	pop    %edx
    326c:	85 c0                	test   %eax,%eax
    326e:	74 53                	je     32c3 <ext3_get_branch+0xa9>
    3270:	89 fa                	mov    %edi,%edx
    3272:	89 34 24             	mov    %esi,(%esp)
    3275:	eb 03                	jmp    327a <ext3_get_branch+0x60>
    3277:	83 c2 0c             	add    $0xc,%edx
    327a:	39 da                	cmp    %ebx,%edx
    327c:	77 0b                	ja     3289 <ext3_get_branch+0x6f>
    327e:	8b 0a                	mov    (%edx),%ecx
    3280:	8b 72 04             	mov    0x4(%edx),%esi
    3283:	3b 31                	cmp    (%ecx),%esi
    3285:	74 f0                	je     3277 <ext3_get_branch+0x5d>
    3287:	eb 29                	jmp    32b2 <ext3_get_branch+0x98>
    3289:	8b 34 24             	mov    (%esp),%esi
    328c:	83 c3 0c             	add    $0xc,%ebx
    328f:	83 c6 04             	add    $0x4,%esi
    3292:	8b 16                	mov    (%esi),%edx
    3294:	c1 e2 02             	shl    $0x2,%edx
    3297:	03 50 18             	add    0x18(%eax),%edx
    329a:	89 13                	mov    %edx,(%ebx)
    329c:	8b 12                	mov    (%edx),%edx
    329e:	89 43 08             	mov    %eax,0x8(%ebx)
    32a1:	89 53 04             	mov    %edx,0x4(%ebx)
    32a4:	85 d2                	test   %edx,%edx
    32a6:	74 25                	je     32cd <ext3_get_branch+0xb3>
    32a8:	ff 4c 24 04          	decl   0x4(%esp)
    32ac:	75 aa                	jne    3258 <ext3_get_branch+0x3e>
    32ae:	31 db                	xor    %ebx,%ebx
    32b0:	eb 1b                	jmp    32cd <ext3_get_branch+0xb3>
    32b2:	e8 31 fd ff ff       	call   2fe8 <brelse>
    32b7:	8b 44 24 20          	mov    0x20(%esp),%eax
    32bb:	c7 00 f5 ff ff ff    	movl   $0xfffffff5,(%eax)
    32c1:	eb 0a                	jmp    32cd <ext3_get_branch+0xb3>
    32c3:	8b 54 24 20          	mov    0x20(%esp),%edx
    32c7:	c7 02 fb ff ff ff    	movl   $0xfffffffb,(%edx)
    32cd:	5a                   	pop    %edx
    32ce:	89 d8                	mov    %ebx,%eax
    32d0:	59                   	pop    %ecx
    32d1:	5b                   	pop    %ebx
    32d2:	5e                   	pop    %esi
    32d3:	5f                   	pop    %edi
    32d4:	5d                   	pop    %ebp
    32d5:	c3                   	ret    

000032d6 <ext3_journalled_set_page_dirty>:
    32d6:	f0 80 48 01 01       	lock orb $0x1,0x1(%eax)
    32db:	e9 fc ff ff ff       	jmp    32dc <ext3_journalled_set_page_dirty+0x6>
			32dc: R_386_PC32	__set_page_dirty_nobuffers

000032e0 <ext3_writepage_trans_blocks>:
    32e0:	53                   	push   %ebx
    32e1:	89 c3                	mov    %eax,%ebx
    32e3:	e8 fc ff ff ff       	call   32e4 <ext3_writepage_trans_blocks+0x4>
			32e4: R_386_PC32	journal_blocks_per_page
    32e8:	89 c1                	mov    %eax,%ecx
    32ea:	b8 0c 00 00 00       	mov    $0xc,%eax
    32ef:	99                   	cltd   
    32f0:	f7 f9                	idiv   %ecx
    32f2:	83 fa 01             	cmp    $0x1,%edx
    32f5:	0f b7 53 72          	movzwl 0x72(%ebx),%edx
    32f9:	19 c0                	sbb    %eax,%eax
    32fb:	83 e0 fe             	and    $0xfffffffe,%eax
    32fe:	83 c0 05             	add    $0x5,%eax
    3301:	81 e2 00 f0 00 00    	and    $0xf000,%edx
    3307:	81 fa 00 80 00 00    	cmp    $0x8000,%edx
    330d:	75 23                	jne    3332 <ext3_writepage_trans_blocks+0x52>
    330f:	8b 93 a4 00 00 00    	mov    0xa4(%ebx),%edx
    3315:	8b 92 84 01 00 00    	mov    0x184(%edx),%edx
    331b:	8b 52 3c             	mov    0x3c(%edx),%edx
    331e:	81 e2 00 0c 00 00    	and    $0xc00,%edx
    3324:	81 fa 00 04 00 00    	cmp    $0x400,%edx
    332a:	74 06                	je     3332 <ext3_writepage_trans_blocks+0x52>
    332c:	f6 43 a1 40          	testb  $0x40,-0x5f(%ebx)
    3330:	74 2c                	je     335e <ext3_writepage_trans_blocks+0x7e>
    3332:	01 c8                	add    %ecx,%eax
    3334:	8d 04 40             	lea    (%eax,%eax,2),%eax
    3337:	83 c0 02             	add    $0x2,%eax
    333a:	8b 93 a4 00 00 00    	mov    0xa4(%ebx),%edx
    3340:	8b 92 84 01 00 00    	mov    0x184(%edx),%edx
    3346:	8b 5a 3c             	mov    0x3c(%edx),%ebx
    3349:	81 e3 00 00 08 00    	and    $0x80000,%ebx
    334f:	83 fb 01             	cmp    $0x1,%ebx
    3352:	19 d2                	sbb    %edx,%edx
    3354:	f7 d2                	not    %edx
    3356:	83 e2 04             	and    $0x4,%edx
    3359:	8d 04 02             	lea    (%edx,%eax,1),%eax
    335c:	5b                   	pop    %ebx
    335d:	c3                   	ret    
    335e:	8d 44 08 01          	lea    0x1(%eax,%ecx,1),%eax
    3362:	01 c0                	add    %eax,%eax
    3364:	eb d4                	jmp    333a <ext3_writepage_trans_blocks+0x5a>

00003366 <ext3_journalled_writepage>:
    3366:	55                   	push   %ebp
    3367:	89 d1                	mov    %edx,%ecx
    3369:	57                   	push   %edi
    336a:	56                   	push   %esi
    336b:	31 f6                	xor    %esi,%esi
    336d:	53                   	push   %ebx
    336e:	89 c3                	mov    %eax,%ebx
    3370:	83 ec 04             	sub    $0x4,%esp
    3373:	8b 40 10             	mov    0x10(%eax),%eax
    3376:	8b 38                	mov    (%eax),%edi
    3378:	64 a1 00 00 00 00    	mov    %fs:0x0,%eax
			337a: R_386_32	per_cpu__current_task
    337e:	83 b8 44 03 00 00 00 	cmpl   $0x0,0x344(%eax)
    3385:	0f 85 f0 00 00 00    	jne    347b <ext3_journalled_writepage+0x115>
    338b:	89 f8                	mov    %edi,%eax
    338d:	89 14 24             	mov    %edx,(%esp)
    3390:	e8 4b ff ff ff       	call   32e0 <ext3_writepage_trans_blocks>
    3395:	89 c2                	mov    %eax,%edx
    3397:	8b 87 a4 00 00 00    	mov    0xa4(%edi),%eax
    339d:	e8 fc ff ff ff       	call   339e <ext3_journalled_writepage+0x38>
			339e: R_386_PC32	ext3_journal_start_sb
    33a2:	8b 0c 24             	mov    (%esp),%ecx
    33a5:	3d 00 f0 ff ff       	cmp    $0xfffff000,%eax
    33aa:	89 c5                	mov    %eax,%ebp
    33ac:	89 c6                	mov    %eax,%esi
    33ae:	0f 87 c7 00 00 00    	ja     347b <ext3_journalled_writepage+0x115>
    33b4:	8b 03                	mov    (%ebx),%eax
    33b6:	f6 c4 08             	test   $0x8,%ah
    33b9:	74 09                	je     33c4 <ext3_journalled_writepage+0x5e>
    33bb:	f6 c4 01             	test   $0x1,%ah
    33be:	0f 84 90 00 00 00    	je     3454 <ext3_journalled_writepage+0xee>
    33c4:	f0 80 63 01 fe       	lock andb $0xfe,0x1(%ebx)
    33c9:	31 d2                	xor    %edx,%edx
    33cb:	b9 00 10 00 00       	mov    $0x1000,%ecx
    33d0:	68 2c 52 00 00       	push   $0x522c
			33d1: R_386_32	.text
    33d5:	89 d8                	mov    %ebx,%eax
    33d7:	e8 fc ff ff ff       	call   33d8 <ext3_journalled_writepage+0x72>
			33d8: R_386_PC32	block_prepare_write
    33dc:	89 c6                	mov    %eax,%esi
    33de:	85 f6                	test   %esi,%esi
    33e0:	58                   	pop    %eax
    33e1:	74 11                	je     33f4 <ext3_journalled_writepage+0x8e>
    33e3:	89 ea                	mov    %ebp,%edx
    33e5:	b8 f4 03 00 00       	mov    $0x3f4,%eax
			33e6: R_386_32	.rodata
    33ea:	e8 fc ff ff ff       	call   33eb <ext3_journalled_writepage+0x85>
			33eb: R_386_PC32	__ext3_journal_stop
    33ef:	e9 90 00 00 00       	jmp    3484 <ext3_journalled_writepage+0x11e>
    33f4:	8b 03                	mov    (%ebx),%eax
    33f6:	f6 c4 08             	test   $0x8,%ah
    33f9:	75 04                	jne    33ff <ext3_journalled_writepage+0x99>
    33fb:	0f 0b                	ud2a   
    33fd:	eb fe                	jmp    33fd <ext3_journalled_writepage+0x97>
    33ff:	8b 53 0c             	mov    0xc(%ebx),%edx
    3402:	31 c9                	xor    %ecx,%ecx
    3404:	89 e8                	mov    %ebp,%eax
    3406:	68 c8 2f 00 00       	push   $0x2fc8
			3407: R_386_32	.text
    340b:	6a 00                	push   $0x0
    340d:	68 00 10 00 00       	push   $0x1000
    3412:	e8 45 f9 ff ff       	call   2d5c <walk_page_buffers>
    3417:	89 c6                	mov    %eax,%esi
    3419:	8b 03                	mov    (%ebx),%eax
    341b:	83 c4 0c             	add    $0xc,%esp
    341e:	f6 c4 08             	test   $0x8,%ah
    3421:	75 04                	jne    3427 <ext3_journalled_writepage+0xc1>
    3423:	0f 0b                	ud2a   
    3425:	eb fe                	jmp    3425 <ext3_journalled_writepage+0xbf>
    3427:	8b 53 0c             	mov    0xc(%ebx),%edx
    342a:	31 c9                	xor    %ecx,%ecx
    342c:	89 e8                	mov    %ebp,%eax
    342e:	68 f2 2f 00 00       	push   $0x2ff2
			342f: R_386_32	.text
    3433:	6a 00                	push   $0x0
    3435:	68 00 10 00 00       	push   $0x1000
    343a:	e8 1d f9 ff ff       	call   2d5c <walk_page_buffers>
    343f:	83 c4 0c             	add    $0xc,%esp
    3442:	85 f6                	test   %esi,%esi
    3444:	0f 44 f0             	cmove  %eax,%esi
    3447:	89 d8                	mov    %ebx,%eax
    3449:	83 4f b4 01          	orl    $0x1,-0x4c(%edi)
    344d:	e8 fc ff ff ff       	call   344e <ext3_journalled_writepage+0xe8>
			344e: R_386_PC32	unlock_page
    3452:	eb 0e                	jmp    3462 <ext3_journalled_writepage+0xfc>
    3454:	ba 2c 52 00 00       	mov    $0x522c,%edx
			3455: R_386_32	.text
    3459:	89 d8                	mov    %ebx,%eax
    345b:	e8 fc ff ff ff       	call   345c <ext3_journalled_writepage+0xf6>
			345c: R_386_PC32	block_write_full_page
    3460:	89 c6                	mov    %eax,%esi
    3462:	89 ea                	mov    %ebp,%edx
    3464:	b8 f4 03 00 00       	mov    $0x3f4,%eax
			3465: R_386_32	.rodata
    3469:	e8 fc ff ff ff       	call   346a <ext3_journalled_writepage+0x104>
			346a: R_386_PC32	__ext3_journal_stop
    346e:	85 f6                	test   %esi,%esi
    3470:	0f 44 f0             	cmove  %eax,%esi
    3473:	59                   	pop    %ecx
    3474:	89 f0                	mov    %esi,%eax
    3476:	5b                   	pop    %ebx
    3477:	5e                   	pop    %esi
    3478:	5f                   	pop    %edi
    3479:	5d                   	pop    %ebp
    347a:	c3                   	ret    
    347b:	89 da                	mov    %ebx,%edx
    347d:	89 c8                	mov    %ecx,%eax
    347f:	e8 fc ff ff ff       	call   3480 <ext3_journalled_writepage+0x11a>
			3480: R_386_PC32	redirty_page_for_writepage
    3484:	89 d8                	mov    %ebx,%eax
    3486:	e8 fc ff ff ff       	call   3487 <ext3_journalled_writepage+0x121>
			3487: R_386_PC32	unlock_page
    348b:	eb e6                	jmp    3473 <ext3_journalled_writepage+0x10d>

0000348d <ext3_ordered_writepage>:
    348d:	55                   	push   %ebp
    348e:	57                   	push   %edi
    348f:	56                   	push   %esi
    3490:	53                   	push   %ebx
    3491:	89 c3                	mov    %eax,%ebx
    3493:	83 ec 04             	sub    $0x4,%esp
    3496:	89 14 24             	mov    %edx,(%esp)
    3499:	8b 40 10             	mov    0x10(%eax),%eax
    349c:	8b 38                	mov    (%eax),%edi
    349e:	8b 03                	mov    (%ebx),%eax
    34a0:	a8 01                	test   $0x1,%al
    34a2:	75 04                	jne    34a8 <ext3_ordered_writepage+0x1b>
    34a4:	0f 0b                	ud2a   
    34a6:	eb fe                	jmp    34a6 <ext3_ordered_writepage+0x19>
    34a8:	64 8b 15 00 00 00 00 	mov    %fs:0x0,%edx
			34ab: R_386_32	per_cpu__current_task
    34af:	31 f6                	xor    %esi,%esi
    34b1:	83 ba 44 03 00 00 00 	cmpl   $0x0,0x344(%edx)
    34b8:	0f 85 f2 00 00 00    	jne    35b0 <ext3_ordered_writepage+0x123>
    34be:	f6 c4 08             	test   $0x8,%ah
    34c1:	75 25                	jne    34e8 <ext3_ordered_writepage+0x5b>
    34c3:	8b 87 a4 00 00 00    	mov    0xa4(%edi),%eax
    34c9:	b9 03 00 00 00       	mov    $0x3,%ecx
    34ce:	8b 50 0c             	mov    0xc(%eax),%edx
    34d1:	89 d8                	mov    %ebx,%eax
    34d3:	e8 fc ff ff ff       	call   34d4 <ext3_ordered_writepage+0x47>
			34d4: R_386_PC32	create_empty_buffers
    34d8:	8b 03                	mov    (%ebx),%eax
    34da:	f6 c4 08             	test   $0x8,%ah
    34dd:	75 04                	jne    34e3 <ext3_ordered_writepage+0x56>
    34df:	0f 0b                	ud2a   
    34e1:	eb fe                	jmp    34e1 <ext3_ordered_writepage+0x54>
    34e3:	8b 6b 0c             	mov    0xc(%ebx),%ebp
    34e6:	eb 32                	jmp    351a <ext3_ordered_writepage+0x8d>
    34e8:	8b 6b 0c             	mov    0xc(%ebx),%ebp
    34eb:	31 c9                	xor    %ecx,%ecx
    34ed:	31 c0                	xor    %eax,%eax
    34ef:	68 d1 2d 00 00       	push   $0x2dd1
			34f0: R_386_32	.text
    34f4:	6a 00                	push   $0x0
    34f6:	68 00 10 00 00       	push   $0x1000
    34fb:	89 ea                	mov    %ebp,%edx
    34fd:	e8 5a f8 ff ff       	call   2d5c <walk_page_buffers>
    3502:	83 c4 0c             	add    $0xc,%esp
    3505:	85 c0                	test   %eax,%eax
    3507:	75 11                	jne    351a <ext3_ordered_writepage+0x8d>
    3509:	8b 0c 24             	mov    (%esp),%ecx
    350c:	89 d8                	mov    %ebx,%eax
    350e:	31 d2                	xor    %edx,%edx
